A51 MACRO ASSEMBLER  UCOS_II                                                              07/03/2002 08:51:26 PAGE     1


MACRO ASSEMBLER A51 V6.20
OBJECT MODULE PLACED IN ..\out\UCOS_II.OBJ
ASSEMBLER INVOKED BY: C:\Keil\C51\BIN\A51.EXE ..\out\UCOS_II.src PR(..\out\UCOS_II.ls1) EP DEBUG

LOC  OBJ            LINE     SOURCE

                       1     ; ..\out\UCOS_II.SRC generated from: ..\SOURCE\UCOS_II.C
                       2     
                       3     $nomod51 
                       4     
                       5     NAME    UCOS_II
                       6     
  0080                 7     P0      DATA    080H
  0090                 8     P1      DATA    090H
  00A0                 9     P2      DATA    0A0H
  00B0                10     P3      DATA    0B0H
  00B4                11     T0      BIT     0B0H.4
  00D6                12     AC      BIT     0D0H.6
  00B5                13     T1      BIT     0B0H.5
  0090                14     T2      BIT     090H.0
  00AF                15     EA      BIT     0A8H.7
  00A8                16     IE      DATA    0A8H
  00CE                17     EXF2    BIT     0C8H.6
  00B7                18     RD      BIT     0B0H.7
  00AC                19     ES      BIT     0A8H.4
  00B8                20     IP      DATA    0B8H
  0098                21     RI      BIT     098H.0
  00B2                22     INT0    BIT     0B0H.2
  00D7                23     CY      BIT     0D0H.7
  0099                24     TI      BIT     098H.1
  00B3                25     INT1    BIT     0B0H.3
  00CB                26     RCAP2H  DATA    0CBH
  00BC                27     PS      BIT     0B8H.4
  0081                28     SP      DATA    081H
  0091                29     T2EX    BIT     090H.1
  00D2                30     OV      BIT     0D0H.2
  00CA                31     RCAP2L  DATA    0CAH
  00C9                32     C_T2    BIT     0C8H.1
  00B6                33     WR      BIT     0B0H.6
  00CD                34     RCLK    BIT     0C8H.5
  00CC                35     TCLK    BIT     0C8H.4
  0099                36     SBUF    DATA    099H
  0087                37     PCON    DATA    087H
  0098                38     SCON    DATA    098H
  0089                39     TMOD    DATA    089H
  0088                40     TCON    DATA    088H
  0089                41     IE0     BIT     088H.1
  008B                42     IE1     BIT     088H.3
  00F0                43     B       DATA    0F0H
  00C8                44     CP_RL2  BIT     0C8H.0
  00E0                45     ACC     DATA    0E0H
  00A9                46     ET0     BIT     0A8H.1
  00AB                47     ET1     BIT     0A8H.3
  008D                48     TF0     BIT     088H.5
  00AD                49     ET2     BIT     0A8H.5
  008F                50     TF1     BIT     088H.7
  00CF                51     TF2     BIT     0C8H.7
  009A                52     RB8     BIT     098H.2
  008C                53     TH0     DATA    08CH
  00A8                54     EX0     BIT     0A8H.0
  0088                55     IT0     BIT     088H.0
  008D                56     TH1     DATA    08DH
  009B                57     TB8     BIT     098H.3
  00AA                58     EX1     BIT     0A8H.2
A51 MACRO ASSEMBLER  UCOS_II                                                              07/03/2002 08:51:26 PAGE     2

  008A                59     IT1     BIT     088H.2
  00CD                60     TH2     DATA    0CDH
  00D0                61     P       BIT     0D0H.0
  009F                62     SM0     BIT     098H.7
  008A                63     TL0     DATA    08AH
  009E                64     SM1     BIT     098H.6
  008B                65     TL1     DATA    08BH
  009D                66     SM2     BIT     098H.5
  00CC                67     TL2     DATA    0CCH
  00B9                68     PT0     BIT     0B8H.1
  00BB                69     PT1     BIT     0B8H.3
  00D3                70     RS0     BIT     0D0H.3
  00BD                71     PT2     BIT     0B8H.5
  008C                72     TR0     BIT     088H.4
  00D4                73     RS1     BIT     0D0H.4
  008E                74     TR1     BIT     088H.6
  00CA                75     TR2     BIT     0C8H.2
  00B8                76     PX0     BIT     0B8H.0
  00BA                77     PX1     BIT     0B8H.2
  0083                78     DPH     DATA    083H
  0082                79     DPL     DATA    082H
  00CB                80     EXEN2   BIT     0C8H.3
  009C                81     REN     BIT     098H.4
  00C8                82     T2CON   DATA    0C8H
  00B0                83     RXD     BIT     0B0H.0
  00B1                84     TXD     BIT     0B0H.1
  00D5                85     F0      BIT     0D0H.5
  00D0                86     PSW     DATA    0D0H
                      87     ?PR?_?OSEventTaskRdy?UCOS_II             SEGMENT CODE INBLOCK 
                      88     ?PR?_?OSEventTaskWait?UCOS_II            SEGMENT CODE INBLOCK 
                      89     ?PR?_?OSEventTO?UCOS_II                  SEGMENT CODE INBLOCK 
                      90     ?PR?_?OSEventWaitListInit?UCOS_II        SEGMENT CODE INBLOCK 
                      91     ?PR?_?OSInit?UCOS_II SEGMENT CODE INBLOCK 
                      92     ?PR?_?OSIntEnter?UCOS_II                 SEGMENT CODE INBLOCK 
                      93     ?PR?_?OSIntExit?UCOS_II                  SEGMENT CODE INBLOCK 
                      94     ?PR?_?OSSched?UCOS_II                    SEGMENT CODE INBLOCK 
                      95     ?PR?_?OSSchedLock?UCOS_II                SEGMENT CODE INBLOCK 
                      96     ?PR?_?OSSchedUnlock?UCOS_II              SEGMENT CODE INBLOCK 
                      97     ?PR?_?OSStart?UCOS_II                    SEGMENT CODE INBLOCK 
                      98     ?PR?_?OSStatInit?UCOS_II                 SEGMENT CODE INBLOCK 
                      99     ?PR?_?OSTaskIdle?UCOS_II                 SEGMENT CODE INBLOCK 
                     100     ?PR?_?OSTaskStat?UCOS_II                 SEGMENT CODE INBLOCK 
                     101     ?PR?_?OSTCBInit?UCOS_II                  SEGMENT CODE INBLOCK 
                     102     ?PR?_?OSTimeTick?UCOS_II                 SEGMENT CODE INBLOCK 
                     103     ?PR?_?OSVersion?UCOS_II                  SEGMENT CODE INBLOCK 
                     104     ?PR?_?OSMboxAccept?UCOS_II               SEGMENT CODE INBLOCK 
                     105     ?PR?_?OSMboxCreate?UCOS_II               SEGMENT CODE INBLOCK 
                     106     ?PR?_?OSMboxPend?UCOS_II                 SEGMENT CODE INBLOCK 
                     107     ?PR?_?OSMboxPost?UCOS_II                 SEGMENT CODE INBLOCK 
                     108     ?PR?_?OSMboxQuery?UCOS_II                SEGMENT CODE INBLOCK 
                     109     ?PR?_?OSSemAccept?UCOS_II                SEGMENT CODE INBLOCK 
                     110     ?PR?_?OSSemCreate?UCOS_II                SEGMENT CODE INBLOCK 
                     111     ?PR?_?OSSemPend?UCOS_II                  SEGMENT CODE INBLOCK 
                     112     ?PR?_?OSSemPost?UCOS_II                  SEGMENT CODE INBLOCK 
                     113     ?PR?_?OSSemQuery?UCOS_II                 SEGMENT CODE INBLOCK 
                     114     ?PR?OSDummy?UCOS_II  SEGMENT CODE INBLOCK 
                     115     ?PR?_?OSTaskCreate?UCOS_II               SEGMENT CODE INBLOCK 
                     116     ?PR?_?OSTaskQuery?UCOS_II                SEGMENT CODE INBLOCK 
                     117     ?PR?_?OSTimeDly?UCOS_II                  SEGMENT CODE INBLOCK 
                     118     ?PR?_?OSTimeDlyHMSM?UCOS_II              SEGMENT CODE INBLOCK 
                     119     ?PR?_?OSTimeDlyResume?UCOS_II            SEGMENT CODE INBLOCK 
                     120     ?PR?_?OSTimeGet?UCOS_II                  SEGMENT CODE INBLOCK 
                     121     ?PR?_?OSTimeSet?UCOS_II                  SEGMENT CODE INBLOCK 
                     122     ?C_INITSEG           SEGMENT CODE 
                     123     ?XD?UCOS_II          SEGMENT XDATA 
                     124     ?PR?UCOS_II          SEGMENT CODE INBLOCK 
A51 MACRO ASSEMBLER  UCOS_II                                                              07/03/2002 08:51:26 PAGE     3

                     125             EXTRN   CODE (_?OSStartHighRdy)
                     126             EXTRN   CODE (_?OSTaskStatHook)
                     127             EXTRN   CODE (_?OSTaskStkInit)
                     128             EXTRN   CODE (_?OSCtxSw)
                     129             EXTRN   CODE (_?OSTaskCreateHook)
                     130             EXTRN   CODE (_?OSIntCtxSw)
                     131             EXTRN   CODE (_?OSTimeTickHook)
                     132             EXTRN   CODE (?C?ADDXBP)
                     133             EXTRN   CODE (?C?PSTXDATA)
                     134             EXTRN   CODE (?C?XBPOFF)
                     135             EXTRN   CODE (?C?PLDXDATA)
                     136             EXTRN   CODE (?C?CLDOPTR)
                     137             EXTRN   CODE (?C?CLDPTR)
                     138             EXTRN   CODE (?C?CSTPTR)
                     139             EXTRN   DATA (?C_XBP)
                     140             EXTRN   CODE (?C?ISTOPTR)
                     141             EXTRN   CODE (?C?PSTOPTR)
                     142             EXTRN   CODE (?C?CSTOPTR)
                     143             EXTRN   CODE (?C?LSTKXDATA)
                     144             EXTRN   CODE (?C?IILDX)
                     145             EXTRN   CODE (?C?OFFXADD)
                     146             EXTRN   CODE (?C?IMUL)
                     147             EXTRN   CODE (?C?LLDXDATA)
                     148             EXTRN   CODE (?C?LSTXDATA)
                     149             EXTRN   CODE (?C?LLDXDATA0)
                     150             EXTRN   CODE (?C?ULCMP)
                     151             EXTRN   CODE (?C?LMUL)
                     152             EXTRN   CODE (?C?ULDIV)
                     153             EXTRN   CODE (?C?PLDOPTR)
                     154             EXTRN   CODE (?C?PSTPTR)
                     155             EXTRN   CODE (?C?ILDOPTR)
                     156             EXTRN   CODE (?C?IILDOPTR)
                     157             EXTRN   CODE (?C?PLDPTR)
                     158             EXTRN   CODE (?C?PLDIXDATA)
                     159             EXTRN   CODE (?C?SLCMP)
                     160             EXTRN   CODE (?C?ISTPTR)
                     161             EXTRN   CODE (?C?COPY)
                     162             EXTRN   CODE (?C?LADD)
                     163             PUBLIC  OSRdyTbl
                     164             PUBLIC  OSIdleCtrMax
                     165             PUBLIC  OSPrioHighRdy
                     166             PUBLIC  OSStatRdy
                     167             PUBLIC  OSPrioCur
                     168             PUBLIC  OSMapTbl
                     169             PUBLIC  OSTaskCtr
                     170             PUBLIC  OSIdleCtr
                     171             PUBLIC  OSEventFreeList
                     172             PUBLIC  OSEventTbl
                     173             PUBLIC  OSCtxSwCtr
                     174             PUBLIC  OSTCBPrioTbl
                     175             PUBLIC  OSTime
                     176             PUBLIC  OSTCBHighRdy
                     177             PUBLIC  OSIntNesting
                     178             PUBLIC  OSUnMapTbl
                     179             PUBLIC  OSTCBCur
                     180             PUBLIC  OSTCBFreeList
                     181             PUBLIC  OSTCBList
                     182             PUBLIC  OSLockNesting
                     183             PUBLIC  OSRunning
                     184             PUBLIC  OSIdleCtrRun
                     185             PUBLIC  OSCPUUsage
                     186             PUBLIC  OSRdyGrp
                     187             PUBLIC  _?OSTimeSet
                     188             PUBLIC  _?OSTimeGet
                     189             PUBLIC  _?OSTimeDlyResume
                     190             PUBLIC  _?OSTimeDlyHMSM
A51 MACRO ASSEMBLER  UCOS_II                                                              07/03/2002 08:51:26 PAGE     4

                     191             PUBLIC  _?OSTimeDly
                     192             PUBLIC  _?OSTaskQuery
                     193             PUBLIC  _?OSTaskCreate
                     194             PUBLIC  _?OSSemQuery
                     195             PUBLIC  _?OSSemPost
                     196             PUBLIC  _?OSSemPend
                     197             PUBLIC  _?OSSemCreate
                     198             PUBLIC  _?OSSemAccept
                     199             PUBLIC  _?OSMboxQuery
                     200             PUBLIC  _?OSMboxPost
                     201             PUBLIC  _?OSMboxPend
                     202             PUBLIC  _?OSMboxCreate
                     203             PUBLIC  _?OSMboxAccept
                     204             PUBLIC  _?OSVersion
                     205             PUBLIC  _?OSTimeTick
                     206             PUBLIC  _?OSTCBInit
                     207             PUBLIC  _?OSTaskStat
                     208             PUBLIC  _?OSTaskIdle
                     209             PUBLIC  _?OSStatInit
                     210             PUBLIC  _?OSStart
                     211             PUBLIC  _?OSSchedUnlock
                     212             PUBLIC  _?OSSchedLock
                     213             PUBLIC  _?OSSched
                     214             PUBLIC  _?OSIntExit
                     215             PUBLIC  _?OSIntEnter
                     216             PUBLIC  _?OSInit
                     217             PUBLIC  _?OSEventWaitListInit
                     218             PUBLIC  _?OSEventTO
                     219             PUBLIC  _?OSEventTaskWait
                     220             PUBLIC  _?OSEventTaskRdy
                     221     
----                 222             RSEG  ?XD?UCOS_II
0000                 223            OSRdyGrp:   DS   1
0001                 224          OSCPUUsage:   DS   1
0002                 225        OSIdleCtrRun:   DS   4
0006                 226           OSRunning:   DS   1
0007                 227       OSTaskStatStk:   DS   64
0047                 228       OSLockNesting:   DS   1
0048                 229           OSTCBList:   DS   3
004B                 230            OSTCBTbl:   DS   115
00BE                 231       OSTCBFreeList:   DS   3
00C1                 232            OSTCBCur:   DS   3
00C4                 233          OSUnMapTbl:   DS   256
01C4                 234        OSIntNesting:   DS   1
01C5                 235        OSTCBHighRdy:   DS   3
01C8                 236              OSTime:   DS   4
01CC                 237        OSTCBPrioTbl:   DS   15
01DB                 238          OSIntExitY:   DS   1
01DC                 239          OSCtxSwCtr:   DS   4
01E0                 240          OSEventTbl:   DS   24
01F8                 241     OSEventFreeList:   DS   3
01FB                 242           OSIdleCtr:   DS   4
01FF                 243           OSTaskCtr:   DS   1
0200                 244            OSMapTbl:   DS   8
0208                 245           OSPrioCur:   DS   1
0209                 246       OSTaskIdleStk:   DS   64
0249                 247           OSStatRdy:   DS   1
024A                 248       OSPrioHighRdy:   DS   1
024B                 249        OSIdleCtrMax:   DS   4
024F                 250            OSRdyTbl:   DS   1
                     251     
----                 252             RSEG  ?C_INITSEG
0000 48              253             DB      048H
0001 0000     F      254             DW      OSMapTbl
0003 01              255             DB      001H
0004 02              256             DB      002H
A51 MACRO ASSEMBLER  UCOS_II                                                              07/03/2002 08:51:26 PAGE     5

0005 04              257             DB      004H
0006 08              258             DB      008H
0007 10              259             DB      010H
0008 20              260             DB      020H
0009 40              261             DB      040H
000A 80              262             DB      080H
                     263     
000B 61              264             DB      061H
000C 00              265             DB      000H
000D 0000     F      266             DW      OSUnMapTbl
000F 00              267             DB      000H
0010 00              268             DB      000H
0011 01              269             DB      001H
0012 00              270             DB      000H
0013 02              271             DB      002H
0014 00              272             DB      000H
0015 01              273             DB      001H
0016 00              274             DB      000H
0017 03              275             DB      003H
0018 00              276             DB      000H
0019 01              277             DB      001H
001A 00              278             DB      000H
001B 02              279             DB      002H
001C 00              280             DB      000H
001D 01              281             DB      001H
001E 00              282             DB      000H
001F 04              283             DB      004H
0020 00              284             DB      000H
0021 01              285             DB      001H
0022 00              286             DB      000H
0023 02              287             DB      002H
0024 00              288             DB      000H
0025 01              289             DB      001H
0026 00              290             DB      000H
0027 03              291             DB      003H
0028 00              292             DB      000H
0029 01              293             DB      001H
002A 00              294             DB      000H
002B 02              295             DB      002H
002C 00              296             DB      000H
002D 01              297             DB      001H
002E 00              298             DB      000H
002F 05              299             DB      005H
0030 00              300             DB      000H
0031 01              301             DB      001H
0032 00              302             DB      000H
0033 02              303             DB      002H
0034 00              304             DB      000H
0035 01              305             DB      001H
0036 00              306             DB      000H
0037 03              307             DB      003H
0038 00              308             DB      000H
0039 01              309             DB      001H
003A 00              310             DB      000H
003B 02              311             DB      002H
003C 00              312             DB      000H
003D 01              313             DB      001H
003E 00              314             DB      000H
003F 04              315             DB      004H
0040 00              316             DB      000H
0041 01              317             DB      001H
0042 00              318             DB      000H
0043 02              319             DB      002H
0044 00              320             DB      000H
0045 01              321             DB      001H
0046 00              322             DB      000H
A51 MACRO ASSEMBLER  UCOS_II                                                              07/03/2002 08:51:26 PAGE     6

0047 03              323             DB      003H
0048 00              324             DB      000H
0049 01              325             DB      001H
004A 00              326             DB      000H
004B 02              327             DB      002H
004C 00              328             DB      000H
004D 01              329             DB      001H
004E 00              330             DB      000H
004F 06              331             DB      006H
0050 00              332             DB      000H
0051 01              333             DB      001H
0052 00              334             DB      000H
0053 02              335             DB      002H
0054 00              336             DB      000H
0055 01              337             DB      001H
0056 00              338             DB      000H
0057 03              339             DB      003H
0058 00              340             DB      000H
0059 01              341             DB      001H
005A 00              342             DB      000H
005B 02              343             DB      002H
005C 00              344             DB      000H
005D 01              345             DB      001H
005E 00              346             DB      000H
005F 04              347             DB      004H
0060 00              348             DB      000H
0061 01              349             DB      001H
0062 00              350             DB      000H
0063 02              351             DB      002H
0064 00              352             DB      000H
0065 01              353             DB      001H
0066 00              354             DB      000H
0067 03              355             DB      003H
0068 00              356             DB      000H
0069 01              357             DB      001H
006A 00              358             DB      000H
006B 02              359             DB      002H
006C 00              360             DB      000H
006D 01              361             DB      001H
006E 00              362             DB      000H
006F 05              363             DB      005H
0070 00              364             DB      000H
0071 01              365             DB      001H
0072 00              366             DB      000H
0073 02              367             DB      002H
0074 00              368             DB      000H
0075 01              369             DB      001H
0076 00              370             DB      000H
0077 03              371             DB      003H
0078 00              372             DB      000H
0079 01              373             DB      001H
007A 00              374             DB      000H
007B 02              375             DB      002H
007C 00              376             DB      000H
007D 01              377             DB      001H
007E 00              378             DB      000H
007F 04              379             DB      004H
0080 00              380             DB      000H
0081 01              381             DB      001H
0082 00              382             DB      000H
0083 02              383             DB      002H
0084 00              384             DB      000H
0085 01              385             DB      001H
0086 00              386             DB      000H
0087 03              387             DB      003H
0088 00              388             DB      000H
A51 MACRO ASSEMBLER  UCOS_II                                                              07/03/2002 08:51:26 PAGE     7

0089 01              389             DB      001H
008A 00              390             DB      000H
008B 02              391             DB      002H
008C 00              392             DB      000H
008D 01              393             DB      001H
008E 00              394             DB      000H
008F 07              395             DB      007H
0090 00              396             DB      000H
0091 01              397             DB      001H
0092 00              398             DB      000H
0093 02              399             DB      002H
0094 00              400             DB      000H
0095 01              401             DB      001H
0096 00              402             DB      000H
0097 03              403             DB      003H
0098 00              404             DB      000H
0099 01              405             DB      001H
009A 00              406             DB      000H
009B 02              407             DB      002H
009C 00              408             DB      000H
009D 01              409             DB      001H
009E 00              410             DB      000H
009F 04              411             DB      004H
00A0 00              412             DB      000H
00A1 01              413             DB      001H
00A2 00              414             DB      000H
00A3 02              415             DB      002H
00A4 00              416             DB      000H
00A5 01              417             DB      001H
00A6 00              418             DB      000H
00A7 03              419             DB      003H
00A8 00              420             DB      000H
00A9 01              421             DB      001H
00AA 00              422             DB      000H
00AB 02              423             DB      002H
00AC 00              424             DB      000H
00AD 01              425             DB      001H
00AE 00              426             DB      000H
00AF 05              427             DB      005H
00B0 00              428             DB      000H
00B1 01              429             DB      001H
00B2 00              430             DB      000H
00B3 02              431             DB      002H
00B4 00              432             DB      000H
00B5 01              433             DB      001H
00B6 00              434             DB      000H
00B7 03              435             DB      003H
00B8 00              436             DB      000H
00B9 01              437             DB      001H
00BA 00              438             DB      000H
00BB 02              439             DB      002H
00BC 00              440             DB      000H
00BD 01              441             DB      001H
00BE 00              442             DB      000H
00BF 04              443             DB      004H
00C0 00              444             DB      000H
00C1 01              445             DB      001H
00C2 00              446             DB      000H
00C3 02              447             DB      002H
00C4 00              448             DB      000H
00C5 01              449             DB      001H
00C6 00              450             DB      000H
00C7 03              451             DB      003H
00C8 00              452             DB      000H
00C9 01              453             DB      001H
00CA 00              454             DB      000H
A51 MACRO ASSEMBLER  UCOS_II                                                              07/03/2002 08:51:26 PAGE     8

00CB 02              455             DB      002H
00CC 00              456             DB      000H
00CD 01              457             DB      001H
00CE 00              458             DB      000H
00CF 06              459             DB      006H
00D0 00              460             DB      000H
00D1 01              461             DB      001H
00D2 00              462             DB      000H
00D3 02              463             DB      002H
00D4 00              464             DB      000H
00D5 01              465             DB      001H
00D6 00              466             DB      000H
00D7 03              467             DB      003H
00D8 00              468             DB      000H
00D9 01              469             DB      001H
00DA 00              470             DB      000H
00DB 02              471             DB      002H
00DC 00              472             DB      000H
00DD 01              473             DB      001H
00DE 00              474             DB      000H
00DF 04              475             DB      004H
00E0 00              476             DB      000H
00E1 01              477             DB      001H
00E2 00              478             DB      000H
00E3 02              479             DB      002H
00E4 00              480             DB      000H
00E5 01              481             DB      001H
00E6 00              482             DB      000H
00E7 03              483             DB      003H
00E8 00              484             DB      000H
00E9 01              485             DB      001H
00EA 00              486             DB      000H
00EB 02              487             DB      002H
00EC 00              488             DB      000H
00ED 01              489             DB      001H
00EE 00              490             DB      000H
00EF 05              491             DB      005H
00F0 00              492             DB      000H
00F1 01              493             DB      001H
00F2 00              494             DB      000H
00F3 02              495             DB      002H
00F4 00              496             DB      000H
00F5 01              497             DB      001H
00F6 00              498             DB      000H
00F7 03              499             DB      003H
00F8 00              500             DB      000H
00F9 01              501             DB      001H
00FA 00              502             DB      000H
00FB 02              503             DB      002H
00FC 00              504             DB      000H
00FD 01              505             DB      001H
00FE 00              506             DB      000H
00FF 04              507             DB      004H
0100 00              508             DB      000H
0101 01              509             DB      001H
0102 00              510             DB      000H
0103 02              511             DB      002H
0104 00              512             DB      000H
0105 01              513             DB      001H
0106 00              514             DB      000H
0107 03              515             DB      003H
0108 00              516             DB      000H
0109 01              517             DB      001H
010A 00              518             DB      000H
010B 02              519             DB      002H
010C 00              520             DB      000H
A51 MACRO ASSEMBLER  UCOS_II                                                              07/03/2002 08:51:26 PAGE     9

010D 01              521             DB      001H
010E 00              522             DB      000H
                     523     
                     524     ; /*
                     525     ; *****************************************************************************************
                             ****************
                     526     ; *                                                uC/OS-II
                     527     ; *                                          The Real-Time Kernel
                     528     ; *
                     529     ; *                        (c) Copyright 1992-1998, Jean J. Labrosse, Plantation, FL
                     530     ; *                                           All Rights Reserved
                     531     ; *
                     532     ; *                                                  V2.00
                     533     ; *
                     534     ; * File : uCOS_II.C
                     535     ; * By   : Jean J. Labrosse
                     536     ; *****************************************************************************************
                             ****************
                     537     ; */
                     538     ; 
                     539     ; #define  OS_GLOBALS                           /* Declare GLOBAL variables                
                                           */
                     540     ; #include "..\mainfile\includes.h"
                     541     ; 
                     542     ; 
                     543     ; #define  OS_MASTER_FILE                       /* Prevent the following files from includi
                             ng includes.h */
                     544     ; #include "os_core.c"
                     545     ; #include "os_mbox.c"
                     546     ; #include "os_mem.c"
                     547     ; #include "os_q.c"
                     548     ; #include "os_sem.c"
                     549     ; #include "os_task.c"
                     550     ; #include "os_time.c"
                     551     ; 
                     552     ; *** sync lost ***
                     553     ; *** sync lost ***
                     554     ; *** sync lost ***
                     555     ; *** sync lost ***
                     556     ; *** sync lost ***
                     557     ; *** sync lost ***
                     558     ; *** sync lost ***
                     559     ; *** sync lost ***
                     560     ; *** sync lost ***
                     561     ; *** sync lost ***
                     562     ; *** sync lost ***
                     563     ; *** sync lost ***
                     564     ; *** sync lost ***
                     565     ; *** sync lost ***
                     566     ; *** sync lost ***
                     567     ; *** sync lost ***
                     568     ; *** sync lost ***
                     569     ; *** sync lost ***
                     570     ; *** sync lost ***
                     571     ; *** sync lost ***
                     572     ; *** sync lost ***
                     573     ; *** sync lost ***
                     574     ; *** sync lost ***
                     575     ; *** sync lost ***
                     576     ; *** sync lost ***
                     577     ; *** sync lost ***
                     578     ; *** sync lost ***
                     579     ; *** sync lost ***
                     580     ; *** sync lost ***
                     581     ; *** sync lost ***
                     582     ; *** sync lost ***
A51 MACRO ASSEMBLER  UCOS_II                                                              07/03/2002 08:51:26 PAGE    10

                     583     ; *** sync lost ***
                     584     ; *** sync lost ***
                     585     ; *** sync lost ***
                     586     ; *** sync lost ***
                     587     ; *** sync lost ***
                     588     ; *** sync lost ***
                     589     ; *** sync lost ***
                     590     ; *** sync lost ***
                     591     ; *** sync lost ***
                     592     ; *** sync lost ***
                     593     ; *** sync lost ***
                     594     ; *** sync lost ***
                     595     ; *** sync lost ***
                     596     ; *** sync lost ***
                     597     ; *** sync lost ***
                     598     ; *** sync lost ***
                     599     ; *** sync lost ***
                     600     ; *** sync lost ***
                     601     ; *** sync lost ***
                     602     ; *** sync lost ***
                     603     ; *** sync lost ***
                     604     ; *** sync lost ***
                     605     ; *** sync lost ***
                     606     ; *** sync lost ***
                     607     ; *** sync lost ***
                     608     ; *** sync lost ***
                     609     ; *** sync lost ***
                     610     ; *** sync lost ***
                     611     ; *** sync lost ***
                     612     ; *** sync lost ***
                     613     ; *** sync lost ***
                     614     ; *** sync lost ***
                     615     ; *** sync lost ***
                     616     ; *** sync lost ***
                     617     ; *** sync lost ***
                     618     ; *** sync lost ***
                     619     ; *** sync lost ***
                     620     ; *** sync lost ***
                     621     ; *** sync lost ***
                     622     ; *** sync lost ***
                     623     ; *** sync lost ***
                     624     
----                 625             RSEG  ?PR?UCOS_II
0000                 626     Com00B1:
0000                 627     L?0178:
                     628             USING   0
0000 75F003          629             MOV     B,#03H
0003 A4              630             MUL     AB
0004 2400     F      631             ADD     A,#LOW (OSTCBPrioTbl)
0006 F582            632             MOV     DPL,A
0008 E4              633             CLR     A
0009 3400     F      634             ADDC    A,#HIGH (OSTCBPrioTbl)
000B F583            635             MOV     DPH,A
000D                 636     L?0179:
000D 120000   F      637             LCALL   ?C?PLDXDATA
0010                 638     L?0180:
0010 850083   F      639             MOV     DPH,?C_XBP
0013 850082   F      640             MOV     DPL,?C_XBP+01H
0016                 641     L?0181:
0016 120000   F      642             LCALL   ?C?PSTXDATA
0019                 643     L?0182:
0019 850083   F      644             MOV     DPH,?C_XBP
001C 850082   F      645             MOV     DPL,?C_XBP+01H
001F 22              646             RET     
0020                 647     L?0183:
                     648             USING   0
A51 MACRO ASSEMBLER  UCOS_II                                                              07/03/2002 08:51:26 PAGE    11

0020 F0              649             MOVX    @DPTR,A
0021 7B01            650             MOV     R3,#01H
0023 90FFFD          651             MOV     DPTR,#0FFFDH
0026 120000   F      652             LCALL   ?C?ADDXBP
0029 120000   F      653             LCALL   ?C?PSTXDATA
002C                 654     L?0184:
002C 7B00            655             MOV     R3,#00H
002E 7A00            656             MOV     R2,#00H
0030 7900            657             MOV     R1,#00H
0032                 658     L?0185:
0032 90FFFD          659             MOV     DPTR,#0FFFDH
0035 120000   F      660             LCALL   ?C?ADDXBP
0038 020000   F      661             LJMP    ?C?PSTXDATA
003B                 662     L?0186:
                     663             USING   0
003B                 664     L?0187:
003B 900003          665             MOV     DPTR,#03H
003E                 666     L?0188:
003E 120000   F      667             LCALL   ?C?XBPOFF
0041 020000   F      668             LJMP    ?C?PLDXDATA
0044                 669     L?0189:
                     670             USING   0
0044 120000   F      671             LCALL   ?C?PLDXDATA
0047                 672     L?0190:
0047 900016          673             MOV     DPTR,#016H
004A 120000   F      674             LCALL   ?C?CLDOPTR
004D FE              675             MOV     R6,A
004E EF              676             MOV     A,R7
004F 4E              677             ORL     A,R6
0050 900000   F      678             MOV     DPTR,#OSRdyGrp
0053 F0              679             MOVX    @DPTR,A
0054                 680     L?0191:
0054 900014          681             MOV     DPTR,#014H
0057 120000   F      682             LCALL   ?C?CLDOPTR
005A                 683     L?0192:
005A 2400     F      684             ADD     A,#LOW (OSRdyTbl)
005C F582            685             MOV     DPL,A
005E E4              686             CLR     A
005F 3400     F      687             ADDC    A,#HIGH (OSRdyTbl)
0061 F583            688             MOV     DPH,A
0063 22              689             RET     
0064                 690     L?0193:
                     691             USING   0
0064 900003          692             MOV     DPTR,#03H
0067                 693     L?0194:
0067 120000   F      694             LCALL   ?C?XBPOFF
006A                 695     L?0195:
006A E0              696             MOVX    A,@DPTR
006B                 697     L?0196:
006B 75F003          698             MOV     B,#03H
006E A4              699             MUL     AB
006F 2400     F      700             ADD     A,#LOW (OSTCBPrioTbl)
0071 F582            701             MOV     DPL,A
0073 E4              702             CLR     A
0074 3400     F      703             ADDC    A,#HIGH (OSTCBPrioTbl)
0076 F583            704             MOV     DPH,A
0078 22              705             RET     
0079                 706     L?0197:
                     707             USING   0
0079                 708     L?0198:
0079 120000   F      709             LCALL   ?C?CLDPTR
007C                 710     L?0199:
007C FF              711             MOV     R7,A
007D                 712     L?0200:
007D 900000   F      713             MOV     DPTR,#OSTCBCur
0080 020000   F      714             LJMP    ?C?PLDXDATA
A51 MACRO ASSEMBLER  UCOS_II                                                              07/03/2002 08:51:26 PAGE    12

0083                 715     L?0201:
                     716             USING   0
0083 900011          717             MOV     DPTR,#011H
0086 E4              718             CLR     A
0087                 719     L?0202:
0087 120000   F      720             LCALL   ?C?CSTOPTR
008A                 721     L?0203:
008A 7B00            722             MOV     R3,#00H
008C 7A00            723             MOV     R2,#00H
008E 7900            724             MOV     R1,#00H
0090 22              725             RET     
0091                 726     L?0204:
                     727             USING   0
0091                 728     L?0205:
0091 900000   F      729             MOV     DPTR,#OSRdyGrp
0094                 730     L?0206:
0094 E0              731             MOVX    A,@DPTR
0095                 732     L?0207:
0095 2400     F      733             ADD     A,#LOW (OSUnMapTbl)
0097 F582            734             MOV     DPL,A
0099 E4              735             CLR     A
009A 3400     F      736             ADDC    A,#HIGH (OSUnMapTbl)
009C F583            737             MOV     DPH,A
009E E0              738             MOVX    A,@DPTR
009F 22              739             RET     
00A0                 740     L?0208:
                     741             USING   0
00A0 120000   F      742             LCALL   ?C?PLDXDATA
00A3 900000   F      743             MOV     DPTR,#OSTCBHighRdy
00A6 120000   F      744             LCALL   ?C?PSTXDATA
00A9 900000   F      745             MOV     DPTR,#OSCtxSwCtr
00AC 120000   F      746             LCALL   ?C?LLDXDATA
00AF 900000   F      747             MOV     DPTR,#OSCtxSwCtr
00B2                 748     L?0209:
00B2 EF              749             MOV     A,R7
00B3 2401            750             ADD     A,#01H
00B5 FF              751             MOV     R7,A
00B6 E4              752             CLR     A
00B7 3E              753             ADDC    A,R6
00B8 FE              754             MOV     R6,A
00B9 E4              755             CLR     A
00BA 3D              756             ADDC    A,R5
00BB FD              757             MOV     R5,A
00BC E4              758             CLR     A
00BD 3C              759             ADDC    A,R4
00BE FC              760             MOV     R4,A
00BF 020000   F      761             LJMP    ?C?LSTXDATA
00C2                 762     L?0210:
                     763             USING   0
00C2 A3              764             INC     DPTR
00C3 E4              765             CLR     A
00C4 75F001          766             MOV     B,#01H
00C7 120000   F      767             LCALL   ?C?PLDIXDATA
00CA 120000   F      768             LCALL   ?C?CLDPTR
00CD                 769     L?0211:
00CD FF              770             MOV     R7,A
00CE                 771     L?0212:
00CE 900004          772             MOV     DPTR,#04H
00D1 020000   F      773             LJMP    ?C?XBPOFF
00D4                 774     L?0213:
                     775             USING   0
00D4                 776     L?0214:
00D4 90FFFF          777             MOV     DPTR,#0FFFFH
00D7 120000   F      778             LCALL   ?C?ADDXBP
00DA                 779     L?0215:
00DA EF              780             MOV     A,R7
A51 MACRO ASSEMBLER  UCOS_II                                                              07/03/2002 08:51:26 PAGE    13

00DB F0              781             MOVX    @DPTR,A
00DC                 782     L?0216:
00DC 90FFFD          783             MOV     DPTR,#0FFFDH
00DF 020000   F      784             LJMP    ?C?ADDXBP
00E2                 785     L?0217:
                     786             USING   0
00E2 120000   F      787             LCALL   ?C?PSTXDATA
00E5 900000   F      788             MOV     DPTR,#OSEventFreeList
00E8                 789     L?0218:
00E8 120000   F      790             LCALL   ?C?PLDXDATA
00EB E9              791             MOV     A,R1
00EC 4A              792             ORL     A,R2
00ED 4B              793             ORL     A,R3
00EE 22              794             RET     
00EF                 795     L?0219:
                     796             USING   0
00EF F0              797             MOVX    @DPTR,A
00F0                 798     L?0220:
00F0 900003          799             MOV     DPTR,#03H
00F3 020000   F      800             LJMP    ?C?XBPOFF
00F6                 801     L?0221:
                     802             USING   0
00F6                 803     L?0222:
00F6 120000   F      804             LCALL   ?C?PLDXDATA
00F9                 805     L?0223:
00F9 E9              806             MOV     A,R1
00FA 2403            807             ADD     A,#03H
00FC F9              808             MOV     R1,A
00FD E4              809             CLR     A
00FE 3A              810             ADDC    A,R2
00FF FA              811             MOV     R2,A
0100 22              812             RET     
0101                 813     L?0224:
                     814             USING   0
0101                 815     L?0225:
0101 90FFFE          816             MOV     DPTR,#0FFFEH
0104 020000   F      817             LJMP    ?C?ADDXBP
0107                 818     L?0226:
                     819             USING   0
0107                 820     L?0227:
0107 120000   F      821             LCALL   ?C?PLDXDATA
010A                 822     L?0228:
010A 900006          823             MOV     DPTR,#06H
010D 020000   F      824             LJMP    ?C?CLDOPTR
0110                 825     L?0229:
                     826             USING   0
0110 F0              827             MOVX    @DPTR,A
0111                 828     L?0230:
0111 90FFFF          829             MOV     DPTR,#0FFFFH
0114 020000   F      830             LJMP    ?C?ADDXBP
0117                 831     L?0231:
                     832             USING   0
0117 120000   F      833             LCALL   ?C?CLDOPTR
011A                 834     L?0232:
011A 2400     F      835             ADD     A,#LOW (OSMapTbl)
011C F582            836             MOV     DPL,A
011E E4              837             CLR     A
011F 3400     F      838             ADDC    A,#HIGH (OSMapTbl)
0121 F583            839             MOV     DPH,A
0123 E0              840             MOVX    A,@DPTR
0124 22              841             RET     
0125                 842     L?0233:
                     843             USING   0
0125                 844     L?0234:
0125 120000   F      845             LCALL   ?C?PLDXDATA
0128                 846     L?0235:
A51 MACRO ASSEMBLER  UCOS_II                                                              07/03/2002 08:51:26 PAGE    14

0128 900015          847             MOV     DPTR,#015H
012B 020000   F      848             LJMP    ?C?CLDOPTR
012E                 849     L?0236:
                     850             USING   0
012E                 851     L?0237:
012E E4              852             CLR     A
012F F5F0            853             MOV     B,A
0131                 854     L?0238:
0131 90000F          855             MOV     DPTR,#0FH
0134 020000   F      856             LJMP    ?C?ISTOPTR
0137                 857     L?0239:
                     858             USING   0
0137 FE              859             MOV     R6,A
0138 EF              860             MOV     A,R7
0139 33              861             RLC     A
013A 33              862             RLC     A
013B 33              863             RLC     A
013C 54F8            864             ANL     A,#0F8H
013E FF              865             MOV     R7,A
013F EE              866             MOV     A,R6
0140 2F              867             ADD     A,R7
0141 FF              868             MOV     R7,A
0142                 869     L?0240:
0142 900000   F      870             MOV     DPTR,#OSPrioHighRdy
0145 F0              871             MOVX    @DPTR,A
0146 900000   F      872             MOV     DPTR,#OSPrioCur
0149 22              873             RET     
014A                 874     L?0241:
                     875             USING   0
014A                 876     L?0242:
014A E9              877             MOV     A,R1
014B 2411            878             ADD     A,#011H
014D                 879     L?0243:
014D F9              880             MOV     R1,A
014E E4              881             CLR     A
014F 3A              882             ADDC    A,R2
0150 FA              883             MOV     R2,A
0151 020000   F      884             LJMP    ?C?CLDPTR
0154                 885     L?0244:
                     886             USING   0
0154                 887     L?0245:
0154 FE              888             MOV     R6,A
0155                 889     L?0246:
0155 900006          890             MOV     DPTR,#06H
0158 020000   F      891             LJMP    ?C?XBPOFF
015B                 892     L?0247:
                     893             USING   0
015B 900000   F      894             MOV     DPTR,#OSRdyGrp
015E E0              895             MOVX    A,@DPTR
015F FF              896             MOV     R7,A
0160 900016          897             MOV     DPTR,#016H
0163 120000   F      898             LCALL   ?C?CLDOPTR
0166 F4              899             CPL     A
0167 FE              900             MOV     R6,A
0168 EF              901             MOV     A,R7
0169 5E              902             ANL     A,R6
016A 900000   F      903             MOV     DPTR,#OSRdyGrp
016D F0              904             MOVX    @DPTR,A
016E 22              905             RET     
016F                 906     L?0248:
                     907             USING   0
016F 900000   F      908             MOV     DPTR,#OSEventFreeList
0172 120000   F      909             LCALL   ?C?PLDXDATA
0175 120000   F      910             LCALL   ?C?PLDPTR
0178                 911     L?0249:
0178 900000   F      912             MOV     DPTR,#OSEventFreeList
A51 MACRO ASSEMBLER  UCOS_II                                                              07/03/2002 08:51:26 PAGE    15

017B 020000   F      913             LJMP    ?C?PSTXDATA
017E                 914     L?0250:
                     915             USING   0
017E 900004          916             MOV     DPTR,#04H
0181                 917     L?0251:
0181 74FF            918             MOV     A,#0FFH
0183 F5F0            919             MOV     B,A
0185 020000   F      920             LJMP    ?C?IILDOPTR
0188                 921     L?0252:
                     922             USING   0
0188                 923     L?0253:
0188 900007          924             MOV     DPTR,#07H
018B 020000   F      925             LJMP    ?C?CLDOPTR
018E                 926     L?0254:
                     927             USING   0
018E                 928     L?0255:
018E 900007          929             MOV     DPTR,#07H
0191 020000   F      930             LJMP    ?C?XBPOFF
0194                 931     L?0256:
                     932             USING   0
0194                 933     L?0257:
0194 900011          934             MOV     DPTR,#011H
0197 020000   F      935             LJMP    ?C?CLDOPTR
019A                 936     L?0258:
                     937             USING   0
019A                 938     L?0259:
019A 120000   F      939             LCALL   ?C?XBPOFF
019D E0              940             MOVX    A,@DPTR
019E FC              941             MOV     R4,A
019F A3              942             INC     DPTR
01A0 E0              943             MOVX    A,@DPTR
01A1 22              944             RET     
01A2                 945     L?0260:
                     946             USING   0
01A2 FD              947             MOV     R5,A
01A3                 948     L?0261:
01A3 120000   F      949             LCALL   ?C?XBPOFF
01A6 EC              950             MOV     A,R4
01A7 F0              951             MOVX    @DPTR,A
01A8 A3              952             INC     DPTR
01A9 ED              953             MOV     A,R5
01AA F0              954             MOVX    @DPTR,A
01AB 22              955             RET     
01AC                 956     L?0262:
                     957             USING   0
01AC 120000   F      958             LCALL   ?C?PLDXDATA
01AF                 959     L?0263:
01AF 900004          960             MOV     DPTR,#04H
01B2 020000   F      961             LJMP    ?C?ILDOPTR
01B5                 962     L?0264:
                     963             USING   0
01B5                 964     L?0265:
01B5 E4              965             CLR     A
01B6                 966     L?0266:
01B6 75F001          967             MOV     B,#01H
01B9 020000   F      968             LJMP    ?C?IILDX
01BC                 969     L?0267:
                     970             USING   0
01BC E0              971             MOVX    A,@DPTR
01BD FE              972             MOV     R6,A
01BE A3              973             INC     DPTR
01BF E0              974             MOVX    A,@DPTR
01C0                 975     L?0268:
01C0 D3              976             SETB    C
01C1 9400            977             SUBB    A,#00H
01C3 EE              978             MOV     A,R6
A51 MACRO ASSEMBLER  UCOS_II                                                              07/03/2002 08:51:26 PAGE    16

01C4 9400            979             SUBB    A,#00H
01C6 22              980             RET     
01C7                 981     L?0269:
                     982             USING   0
01C7 900000   F      983             MOV     DPTR,#OSTCBHighRdy
01CA 120000   F      984             LCALL   ?C?PSTXDATA
01CD 900000   F      985             MOV     DPTR,#OSTCBCur
01D0 020000   F      986             LJMP    ?C?PSTXDATA
01D3                 987     L?0270:
                     988             USING   0
01D3                 989     L?0271:
01D3 900000   F      990             MOV     DPTR,#OSIdleCtr
01D6 020000   F      991             LJMP    ?C?LLDXDATA
01D9                 992     L?0272:
                     993             USING   0
01D9                 994     L?0273:
01D9 120000   F      995             LCALL   ?C?PLDXDATA
01DC 900006          996             MOV     DPTR,#06H
01DF 22              997             RET     
01E0                 998     L?0274:
                     999             USING   0
01E0 E4             1000             CLR     A
01E1 7B64           1001             MOV     R3,#064H
01E3                1002     L?0275:
01E3 FA             1003             MOV     R2,A
01E4 F9             1004             MOV     R1,A
01E5 F8             1005             MOV     R0,A
01E6 020000   F     1006             LJMP    ?C?LMUL
01E9                1007     L?0276:
                    1008             USING   0
01E9 E4             1009             CLR     A
01EA 75F001         1010             MOV     B,#01H
01ED 120000   F     1011             LCALL   ?C?PLDIXDATA
01F0 EF             1012             MOV     A,R7
01F1 020000   F     1013             LJMP    ?C?CSTPTR
01F4                1014     L?0277:
                    1015             USING   0
01F4                1016     L?0278:
01F4 900008         1017             MOV     DPTR,#08H
01F7 120000   F     1018             LCALL   ?C?XBPOFF
01FA E0             1019             MOVX    A,@DPTR
01FB 22             1020             RET     
01FC                1021     L?0279:
                    1022             USING   0
01FC 120000   F     1023             LCALL   ?C?PLDXDATA
01FF E9             1024             MOV     A,R1
0200 2407           1025             ADD     A,#07H
0202 F9             1026             MOV     R1,A
0203 E4             1027             CLR     A
0204 3A             1028             ADDC    A,R2
0205 FA             1029             MOV     R2,A
0206 22             1030             RET     
0207                1031     L?0280:
                    1032             USING   0
0207 900000   F     1033             MOV     DPTR,#OSIntNesting
020A E0             1034             MOVX    A,@DPTR
020B FF             1035             MOV     R7,A
020C 900000   F     1036             MOV     DPTR,#OSLockNesting
020F E0             1037             MOVX    A,@DPTR
0210 4F             1038             ORL     A,R7
0211 22             1039             RET     
0212                1040     L?0281:
                    1041             USING   0
0212                1042     L?0282:
0212 900005         1043             MOV     DPTR,#05H
0215 020000   F     1044             LJMP    ?C?XBPOFF
A51 MACRO ASSEMBLER  UCOS_II                                                              07/03/2002 08:51:26 PAGE    17

0218                1045     L?0283:
                    1046             USING   0
0218 900014         1047             MOV     DPTR,#014H
021B 120000   F     1048             LCALL   ?C?CLDOPTR
021E FF             1049             MOV     R7,A
021F 7E00           1050             MOV     R6,#00H
0221 22             1051             RET     
0222                1052     L?0284:
                    1053             USING   0
0222                1054     L?0285:
0222 E9             1055             MOV     A,R1
0223 2F             1056             ADD     A,R7
0224 F9             1057             MOV     R1,A
0225 EE             1058             MOV     A,R6
0226 3A             1059             ADDC    A,R2
0227 FA             1060             MOV     R2,A
0228 22             1061             RET     
0229                1062     L?0286:
                    1063             USING   0
0229                1064     L?0287:
0229 E0             1065             MOVX    A,@DPTR
022A FE             1066             MOV     R6,A
022B A3             1067             INC     DPTR
022C E0             1068             MOVX    A,@DPTR
022D FF             1069             MOV     R7,A
022E C3             1070             CLR     C
022F 22             1071             RET     
0230                1072     L?0288:
                    1073             USING   0
0230                1074     L?0289:
0230 120000   F     1075             LCALL   ?C?PLDXDATA
0233 900003         1076             MOV     DPTR,#03H
0236 22             1077             RET     
0237                1078     L?0290:
                    1079             USING   0
0237                1080     L?0291:
0237 120000   F     1081             LCALL   ?C?PLDXDATA
023A 90000F         1082             MOV     DPTR,#0FH
023D 22             1083             RET     
023E                1084     L?0292:
                    1085             USING   0
023E                1086     L?0293:
023E 90FFFC         1087             MOV     DPTR,#0FFFCH
0241 020000   F     1088             LJMP    ?C?ADDXBP
                    1089     ; END OF Com00B1
                    1090     
                    1091     ; *** sync lost ***
                    1092     
----                1093             RSEG  ?PR?_?OSEventTaskRdy?UCOS_II
0000                1094     _?OSEventTaskRdy:
                    1095             USING   0
                    1096                             ; SOURCE LINE # 101
0000 120000   F     1097             LCALL   L?0185
0003 90FFF8         1098             MOV     DPTR,#0FFF8H
0006 120000   F     1099             LCALL   ?C?ADDXBP
                    1100     ; *** sync lost ***
                    1101     ; *** sync lost ***
                    1102     ; *** sync lost ***
                    1103     ; *** sync lost ***
                    1104     ; *** sync lost ***
                    1105     ; *** sync lost ***
                    1106     ; *** sync lost ***
                    1107     ; *** sync lost ***
                    1108     ; *** sync lost ***
                    1109     ; *** sync lost ***
                    1110                             ; SOURCE LINE # 111
A51 MACRO ASSEMBLER  UCOS_II                                                              07/03/2002 08:51:26 PAGE    18

0009 900008         1111             MOV     DPTR,#08H
000C 120000   F     1112             LCALL   L?0188
000F 120000   F     1113             LCALL   L?0252
0012 120000   F     1114             LCALL   L?0207
0015 120000   F     1115             LCALL   L?0211
0018 EF             1116             MOV     A,R7
0019 F0             1117             MOVX    @DPTR,A
                    1118     ; *** sync lost ***
                    1119                             ; SOURCE LINE # 112
001A 120000   F     1120             LCALL   L?0212
001D E0             1121             MOVX    A,@DPTR
001E FF             1122             MOV     R7,A
001F 120000   F     1123             LCALL   L?0232
0022 120000   F     1124             LCALL   L?0244
0025 EE             1125             MOV     A,R6
0026 F0             1126             MOVX    @DPTR,A
                    1127     ; *** sync lost ***
                    1128                             ; SOURCE LINE # 113
0027 120000   F     1129             LCALL   L?0223
002A EF             1130             MOV     A,R7
002B 7C00           1131             MOV     R4,#00H
002D 29             1132             ADD     A,R1
002E F9             1133             MOV     R1,A
002F EC             1134             MOV     A,R4
0030 3A             1135             ADDC    A,R2
0031 FA             1136             MOV     R2,A
0032 120000   F     1137             LCALL   ?C?CLDPTR
0035 FE             1138             MOV     R6,A
0036 120000   F     1139             LCALL   L?0207
0039 FD             1140             MOV     R5,A
003A 120000   F     1141             LCALL   L?0220
003D ED             1142             MOV     A,R5
                    1143     ; *** sync lost ***
                    1144                             ; SOURCE LINE # 114
003E 120000   F     1145             LCALL   L?0219
0041 E0             1146             MOVX    A,@DPTR
0042 FD             1147             MOV     R5,A
0043 120000   F     1148             LCALL   L?0232
0046 FC             1149             MOV     R4,A
0047 120000   F     1150             LCALL   L?0281
004A EC             1151             MOV     A,R4
004B F0             1152             MOVX    @DPTR,A
                    1153     ; *** sync lost ***
                    1154                             ; SOURCE LINE # 115
004C EF             1155             MOV     A,R7
004D 33             1156             RLC     A
004E 33             1157             RLC     A
004F 33             1158             RLC     A
0050 54F8           1159             ANL     A,#0F8H
0052 2D             1160             ADD     A,R5
0053 FF             1161             MOV     R7,A
0054 120000   F     1162             LCALL   L?0254
0057 EF             1163             MOV     A,R7
0058 F0             1164             MOVX    @DPTR,A
                    1165     ; *** sync lost ***
                    1166                             ; SOURCE LINE # 116
0059 120000   F     1167             LCALL   L?0281
005C E0             1168             MOVX    A,@DPTR
005D FC             1169             MOV     R4,A
005E F4             1170             CPL     A
005F 5E             1171             ANL     A,R6
0060 120000   F     1172             LCALL   ?C?CSTPTR
0063 7015           1173             JNZ     ?C0001
                    1174     ; *** sync lost ***
                    1175                             ; SOURCE LINE # 117
0065 900008         1176             MOV     DPTR,#08H
A51 MACRO ASSEMBLER  UCOS_II                                                              07/03/2002 08:51:26 PAGE    19

0068 120000   F     1177             LCALL   L?0188
006B E9             1178             MOV     A,R1
006C 2407           1179             ADD     A,#07H
006E 120000   F     1180             LCALL   L?0243
0071 120000   F     1181             LCALL   L?0244
0074 E0             1182             MOVX    A,@DPTR
0075 F4             1183             CPL     A
0076 5E             1184             ANL     A,R6
0077 120000   F     1185             LCALL   ?C?CSTPTR
                    1186     ; *** sync lost ***
                    1187                             ; SOURCE LINE # 118
007A                1188     ?C0001:
                    1189     ; *** sync lost ***
                    1190                             ; SOURCE LINE # 119
007A 120000   F     1191             LCALL   L?0254
007D E0             1192             MOVX    A,@DPTR
                    1193     ; *** sync lost ***
                    1194                             ; SOURCE LINE # 120
007E 120000   F     1195             LCALL   L?0178
0081 120000   F     1196             LCALL   ?C?PLDXDATA
0084 120000   F     1197             LCALL   L?0236
                    1198     ; *** sync lost ***
                    1199                             ; SOURCE LINE # 121
0087 120000   F     1200             LCALL   L?0203
008A C003           1201             PUSH    AR3
008C C002           1202             PUSH    AR2
008E C001           1203             PUSH    AR1
0090 120000   F     1204             LCALL   L?0182
0093 120000   F     1205             LCALL   ?C?PLDXDATA
0096 900009         1206             MOV     DPTR,#09H
0099 120000   F     1207             LCALL   ?C?PSTOPTR
                    1208     ; *** sync lost ***
                    1209     ; *** sync lost ***
                    1210                             ; SOURCE LINE # 123
009C 90000B         1211             MOV     DPTR,#0BH
009F 120000   F     1212             LCALL   L?0188
00A2 C003           1213             PUSH    AR3
00A4 C002           1214             PUSH    AR2
00A6 C001           1215             PUSH    AR1
00A8 120000   F     1216             LCALL   L?0182
00AB 120000   F     1217             LCALL   ?C?PLDXDATA
00AE 90000C         1218             MOV     DPTR,#0CH
00B1 120000   F     1219             LCALL   ?C?PSTOPTR
                    1220     ; *** sync lost ***
                    1221     ; *** sync lost ***
                    1222     ; *** sync lost ***
                    1223     ; *** sync lost ***
                    1224                             ; SOURCE LINE # 127
00B4 120000   F     1225             LCALL   L?0182
00B7 120000   F     1226             LCALL   ?C?PLDXDATA
00BA 120000   F     1227             LCALL   L?0241
00BD FE             1228             MOV     R6,A
00BE 90000E         1229             MOV     DPTR,#0EH
00C1 120000   F     1230             LCALL   ?C?XBPOFF
00C4 E0             1231             MOVX    A,@DPTR
00C5 F4             1232             CPL     A
00C6 5E             1233             ANL     A,R6
00C7 120000   F     1234             LCALL   ?C?CSTPTR
                    1235     ; *** sync lost ***
                    1236                             ; SOURCE LINE # 128
00CA 120000   F     1237             LCALL   L?0182
00CD 120000   F     1238             LCALL   ?C?PLDXDATA
00D0 120000   F     1239             LCALL   L?0256
00D3 7017           1240             JNZ     ?C0003
                    1241     ; *** sync lost ***
                    1242                             ; SOURCE LINE # 129
A51 MACRO ASSEMBLER  UCOS_II                                                              07/03/2002 08:51:26 PAGE    20

00D5 900000   F     1243             MOV     DPTR,#OSRdyGrp
00D8 E0             1244             MOVX    A,@DPTR
00D9 120000   F     1245             LCALL   L?0245
00DC E0             1246             MOVX    A,@DPTR
00DD 4E             1247             ORL     A,R6
00DE 900000   F     1248             MOV     DPTR,#OSRdyGrp
00E1 F0             1249             MOVX    @DPTR,A
                    1250     ; *** sync lost ***
                    1251                             ; SOURCE LINE # 130
00E2 120000   F     1252             LCALL   L?0212
00E5 E0             1253             MOVX    A,@DPTR
00E6 120000   F     1254             LCALL   L?0192
00E9 E0             1255             MOVX    A,@DPTR
00EA 4C             1256             ORL     A,R4
00EB F0             1257             MOVX    @DPTR,A
                    1258     ; *** sync lost ***
                    1259                             ; SOURCE LINE # 131
                    1260     ; *** sync lost ***
                    1261                             ; SOURCE LINE # 132
00EC                1262     ?C0003:
00EC 90000F         1263             MOV     DPTR,#0FH
00EF 020000   F     1264             LJMP    ?C?ADDXBP
                    1265     ; END OF _?OSEventTaskRdy
                    1266     
                    1267     ; *** sync lost ***
                    1268     ; *** sync lost ***
                    1269     ; *** sync lost ***
                    1270     ; *** sync lost ***
                    1271     ; *** sync lost ***
                    1272     ; *** sync lost ***
                    1273     ; *** sync lost ***
                    1274     ; *** sync lost ***
                    1275     ; *** sync lost ***
                    1276     ; *** sync lost ***
                    1277     ; *** sync lost ***
                    1278     ; *** sync lost ***
                    1279     ; *** sync lost ***
                    1280     ; *** sync lost ***
                    1281     ; *** sync lost ***
                    1282     ; *** sync lost ***
                    1283     ; *** sync lost ***
                    1284     ; *** sync lost ***
                    1285     
----                1286             RSEG  ?PR?_?OSEventTaskWait?UCOS_II
0000                1287     _?OSEventTaskWait:
                    1288             USING   0
                    1289                             ; SOURCE LINE # 150
0000 120000   F     1290             LCALL   L?0216
                    1291     ; *** sync lost ***
                    1292     ; *** sync lost ***
                    1293                             ; SOURCE LINE # 152
0003 120000   F     1294             LCALL   L?0181
0006 120000   F     1295             LCALL   ?C?PLDXDATA
0009 C003           1296             PUSH    AR3
000B C002           1297             PUSH    AR2
000D C001           1298             PUSH    AR1
000F 120000   F     1299             LCALL   L?0200
0012 900009         1300             MOV     DPTR,#09H
0015 120000   F     1301             LCALL   ?C?PSTOPTR
                    1302     ; *** sync lost ***
                    1303                             ; SOURCE LINE # 153
0018 120000   F     1304             LCALL   L?0200
001B 120000   F     1305             LCALL   L?0191
001E C083           1306             PUSH    DPH
0020 C082           1307             PUSH    DPL
0022 E0             1308             MOVX    A,@DPTR
A51 MACRO ASSEMBLER  UCOS_II                                                              07/03/2002 08:51:26 PAGE    21

0023 120000   F     1309             LCALL   L?0199
0026 120000   F     1310             LCALL   L?0235
0029 F4             1311             CPL     A
002A FE             1312             MOV     R6,A
002B EF             1313             MOV     A,R7
002C 5E             1314             ANL     A,R6
002D D082           1315             POP     DPL
002F D083           1316             POP     DPH
0031 F0             1317             MOVX    @DPTR,A
0032 7003           1318             JNZ     ?C0004
                    1319     ; *** sync lost ***
                    1320                             ; SOURCE LINE # 154
0034 120000   F     1321             LCALL   L?0247
                    1322     ; *** sync lost ***
                    1323                             ; SOURCE LINE # 155
0037                1324     ?C0004:
                    1325     ; *** sync lost ***
                    1326                             ; SOURCE LINE # 156
0037 120000   F     1327             LCALL   L?0200
003A 120000   F     1328             LCALL   L?0283
003D 120000   F     1329             LCALL   L?0182
0040 120000   F     1330             LCALL   L?0221
0043 120000   F     1331             LCALL   L?0284
0046 C003           1332             PUSH    AR3
0048 C002           1333             PUSH    AR2
004A C001           1334             PUSH    AR1
004C 120000   F     1335             LCALL   L?0197
004F 120000   F     1336             LCALL   L?0235
0052 4F             1337             ORL     A,R7
0053 D001           1338             POP     AR1
0055 D002           1339             POP     AR2
0057 D003           1340             POP     AR3
0059 120000   F     1341             LCALL   ?C?CSTPTR
                    1342     ; *** sync lost ***
                    1343                             ; SOURCE LINE # 157
005C 120000   F     1344             LCALL   L?0182
005F 120000   F     1345             LCALL   L?0279
0062 C003           1346             PUSH    AR3
0064 C002           1347             PUSH    AR2
0066 C001           1348             PUSH    AR1
0068 120000   F     1349             LCALL   L?0197
006B 900016         1350             MOV     DPTR,#016H
006E 120000   F     1351             LCALL   ?C?CLDOPTR
0071 4F             1352             ORL     A,R7
0072 D001           1353             POP     AR1
0074 D002           1354             POP     AR2
0076 D003           1355             POP     AR3
0078 120000   F     1356             LCALL   ?C?CSTPTR
                    1357     ; *** sync lost ***
                    1358                             ; SOURCE LINE # 158
007B 900003         1359             MOV     DPTR,#03H
007E 020000   F     1360             LJMP    ?C?ADDXBP
                    1361     ; END OF _?OSEventTaskWait
                    1362     
                    1363     ; *** sync lost ***
                    1364     ; *** sync lost ***
                    1365     ; *** sync lost ***
                    1366     ; *** sync lost ***
                    1367     ; *** sync lost ***
                    1368     ; *** sync lost ***
                    1369     ; *** sync lost ***
                    1370     ; *** sync lost ***
                    1371     ; *** sync lost ***
                    1372     ; *** sync lost ***
                    1373     ; *** sync lost ***
                    1374     ; *** sync lost ***
A51 MACRO ASSEMBLER  UCOS_II                                                              07/03/2002 08:51:26 PAGE    22

                    1375     ; *** sync lost ***
                    1376     ; *** sync lost ***
                    1377     ; *** sync lost ***
                    1378     ; *** sync lost ***
                    1379     ; *** sync lost ***
                    1380     ; *** sync lost ***
                    1381     
----                1382             RSEG  ?PR?_?OSEventTO?UCOS_II
0000                1383     _?OSEventTO:
                    1384             USING   0
                    1385                             ; SOURCE LINE # 176
0000 120000   F     1386             LCALL   L?0185
                    1387     ; *** sync lost ***
                    1388     ; *** sync lost ***
                    1389                             ; SOURCE LINE # 178
0003 120000   F     1390             LCALL   L?0200
0006 120000   F     1391             LCALL   L?0283
0009 120000   F     1392             LCALL   L?0182
000C 120000   F     1393             LCALL   L?0221
000F 120000   F     1394             LCALL   L?0284
0012 C003           1395             PUSH    AR3
0014 C002           1396             PUSH    AR2
0016 C001           1397             PUSH    AR1
0018 120000   F     1398             LCALL   L?0198
001B 120000   F     1399             LCALL   L?0235
001E F4             1400             CPL     A
001F 5F             1401             ANL     A,R7
0020 D001           1402             POP     AR1
0022 D002           1403             POP     AR2
0024 D003           1404             POP     AR3
0026 120000   F     1405             LCALL   ?C?CSTPTR
0029 7020           1406             JNZ     ?C0006
                    1407     ; *** sync lost ***
                    1408                             ; SOURCE LINE # 179
002B 120000   F     1409             LCALL   L?0182
002E 120000   F     1410             LCALL   L?0279
0031 C003           1411             PUSH    AR3
0033 C002           1412             PUSH    AR2
0035 C001           1413             PUSH    AR1
0037 120000   F     1414             LCALL   L?0198
003A 900016         1415             MOV     DPTR,#016H
003D 120000   F     1416             LCALL   ?C?CLDOPTR
0040 F4             1417             CPL     A
0041 5F             1418             ANL     A,R7
0042 D001           1419             POP     AR1
0044 D002           1420             POP     AR2
0046 D003           1421             POP     AR3
0048 120000   F     1422             LCALL   ?C?CSTPTR
                    1423     ; *** sync lost ***
                    1424                             ; SOURCE LINE # 180
004B                1425     ?C0006:
                    1426     ; *** sync lost ***
                    1427                             ; SOURCE LINE # 181
004B 120000   F     1428             LCALL   L?0200
                    1429     ; *** sync lost ***
                    1430                             ; SOURCE LINE # 182
004E 120000   F     1431             LCALL   L?0201
0051 C003           1432             PUSH    AR3
0053 C002           1433             PUSH    AR2
0055 C001           1434             PUSH    AR1
0057 120000   F     1435             LCALL   L?0200
005A 900009         1436             MOV     DPTR,#09H
005D 120000   F     1437             LCALL   ?C?PSTOPTR
                    1438     ; *** sync lost ***
                    1439                             ; SOURCE LINE # 183
0060 900003         1440             MOV     DPTR,#03H
A51 MACRO ASSEMBLER  UCOS_II                                                              07/03/2002 08:51:26 PAGE    23

0063 020000   F     1441             LJMP    ?C?ADDXBP
                    1442     ; END OF _?OSEventTO
                    1443     
                    1444     ; *** sync lost ***
                    1445     ; *** sync lost ***
                    1446     ; *** sync lost ***
                    1447     ; *** sync lost ***
                    1448     ; *** sync lost ***
                    1449     ; *** sync lost ***
                    1450     ; *** sync lost ***
                    1451     ; *** sync lost ***
                    1452     ; *** sync lost ***
                    1453     ; *** sync lost ***
                    1454     ; *** sync lost ***
                    1455     ; *** sync lost ***
                    1456     ; *** sync lost ***
                    1457     ; *** sync lost ***
                    1458     ; *** sync lost ***
                    1459     ; *** sync lost ***
                    1460     ; *** sync lost ***
                    1461     
----                1462             RSEG  ?PR?_?OSEventWaitListInit?UCOS_II
0000                1463     _?OSEventWaitListInit:
                    1464             USING   0
                    1465                             ; SOURCE LINE # 200
0000 120000   F     1466             LCALL   L?0185
0003 120000   F     1467             LCALL   L?0230
                    1468     ; *** sync lost ***
                    1469     ; *** sync lost ***
                    1470     ; *** sync lost ***
                    1471     ; *** sync lost ***
                    1472     ; *** sync lost ***
                    1473                             ; SOURCE LINE # 205
0006 120000   F     1474             LCALL   L?0182
0009 A3             1475             INC     DPTR
000A 120000   F     1476             LCALL   ?C?PLDXDATA
000D 900007         1477             MOV     DPTR,#07H
0010 E4             1478             CLR     A
0011 120000   F     1479             LCALL   ?C?CSTOPTR
                    1480     ; *** sync lost ***
                    1481                             ; SOURCE LINE # 206
0014 120000   F     1482             LCALL   L?0182
0017 E4             1483             CLR     A
0018 F0             1484             MOVX    @DPTR,A
0019                1485     ?C0008:
0019 120000   F     1486             LCALL   L?0182
001C E0             1487             MOVX    A,@DPTR
001D FF             1488             MOV     R7,A
001E C3             1489             CLR     C
001F 9401           1490             SUBB    A,#01H
0021 5015           1491             JNC     ?C0011
                    1492     ; *** sync lost ***
                    1493                             ; SOURCE LINE # 207
0023 A3             1494             INC     DPTR
0024 120000   F     1495             LCALL   L?0222
0027 7E00           1496             MOV     R6,#00H
0029 120000   F     1497             LCALL   L?0285
002C E4             1498             CLR     A
002D 120000   F     1499             LCALL   ?C?CSTPTR
                    1500     ; *** sync lost ***
                    1501                             ; SOURCE LINE # 208
0030 120000   F     1502             LCALL   L?0182
0033 E0             1503             MOVX    A,@DPTR
0034 04             1504             INC     A
0035 F0             1505             MOVX    @DPTR,A
0036 80E1           1506             SJMP    ?C0008
A51 MACRO ASSEMBLER  UCOS_II                                                              07/03/2002 08:51:26 PAGE    24

                    1507     ; *** sync lost ***
                    1508                             ; SOURCE LINE # 209
0038                1509     ?C0011:
0038 900004         1510             MOV     DPTR,#04H
003B 020000   F     1511             LJMP    ?C?ADDXBP
                    1512     ; END OF _?OSEventWaitListInit
                    1513     
                    1514     ; *** sync lost ***
                    1515     ; *** sync lost ***
                    1516     ; *** sync lost ***
                    1517     ; *** sync lost ***
                    1518     ; *** sync lost ***
                    1519     ; *** sync lost ***
                    1520     ; *** sync lost ***
                    1521     ; *** sync lost ***
                    1522     ; *** sync lost ***
                    1523     ; *** sync lost ***
                    1524     ; *** sync lost ***
                    1525     ; *** sync lost ***
                    1526     ; *** sync lost ***
                    1527     ; *** sync lost ***
                    1528     ; *** sync lost ***
                    1529     ; *** sync lost ***
                    1530     
----                1531             RSEG  ?PR?_?OSInit?UCOS_II
0000                1532     _?OSInit:
                    1533             USING   0
                    1534                             ; SOURCE LINE # 225
0000 120000   F     1535             LCALL   L?0224
                    1536     ; *** sync lost ***
                    1537     ; *** sync lost ***
                    1538     ; *** sync lost ***
                    1539     ; *** sync lost ***
                    1540     ; *** sync lost ***
                    1541                             ; SOURCE LINE # 230
0003 900000   F     1542             MOV     DPTR,#OSTime
0006 120000   F     1543             LCALL   ?C?LSTKXDATA
0009 00             1544             DB      00H
000A 00             1545             DB      00H
000B 00             1546             DB      00H
000C 00             1547             DB      00H
                    1548     ; *** sync lost ***
                    1549                             ; SOURCE LINE # 231
000D E4             1550             CLR     A
000E 900000   F     1551             MOV     DPTR,#OSIntNesting
0011 F0             1552             MOVX    @DPTR,A
                    1553     ; *** sync lost ***
                    1554                             ; SOURCE LINE # 232
0012 900000   F     1555             MOV     DPTR,#OSLockNesting
0015 F0             1556             MOVX    @DPTR,A
                    1557     ; *** sync lost ***
                    1558     ; *** sync lost ***
                    1559                             ; SOURCE LINE # 234
0016 900000   F     1560             MOV     DPTR,#OSTaskCtr
0019 F0             1561             MOVX    @DPTR,A
                    1562     ; *** sync lost ***
                    1563     ; *** sync lost ***
                    1564                             ; SOURCE LINE # 236
001A 900000   F     1565             MOV     DPTR,#OSRunning
001D F0             1566             MOVX    @DPTR,A
                    1567     ; *** sync lost ***
                    1568                             ; SOURCE LINE # 237
001E 900000   F     1569             MOV     DPTR,#OSIdleCtr
0021 120000   F     1570             LCALL   ?C?LSTKXDATA
0024 00             1571             DB      00H
0025 00             1572             DB      00H
A51 MACRO ASSEMBLER  UCOS_II                                                              07/03/2002 08:51:26 PAGE    25

0026 00             1573             DB      00H
0027 00             1574             DB      00H
                    1575     ; *** sync lost ***
                    1576     ; *** sync lost ***
                    1577     ; *** sync lost ***
                    1578     ; *** sync lost ***
                    1579     ; *** sync lost ***
                    1580     ; *** sync lost ***
                    1581                             ; SOURCE LINE # 243
0028 900000   F     1582             MOV     DPTR,#OSCtxSwCtr
002B 120000   F     1583             LCALL   ?C?LSTKXDATA
002E 00             1584             DB      00H
002F 00             1585             DB      00H
0030 00             1586             DB      00H
0031 00             1587             DB      00H
                    1588     ; *** sync lost ***
                    1589                             ; SOURCE LINE # 244
0032 E4             1590             CLR     A
0033 900000   F     1591             MOV     DPTR,#OSRdyGrp
0036 F0             1592             MOVX    @DPTR,A
                    1593     ; *** sync lost ***
                    1594                             ; SOURCE LINE # 245
0037 120000   F     1595             LCALL   L?0182
003A F0             1596             MOVX    @DPTR,A
003B A3             1597             INC     DPTR
003C F0             1598             MOVX    @DPTR,A
003D                1599     ?C0012:
003D 120000   F     1600             LCALL   L?0182
0040 E0             1601             MOVX    A,@DPTR
0041 FE             1602             MOV     R6,A
0042 A3             1603             INC     DPTR
0043 E0             1604             MOVX    A,@DPTR
0044 C3             1605             CLR     C
0045 9401           1606             SUBB    A,#01H
0047 EE             1607             MOV     A,R6
0048 9400           1608             SUBB    A,#00H
004A 5012           1609             JNC     ?C0013
                    1610     ; *** sync lost ***
                    1611                             ; SOURCE LINE # 246
004C 120000   F     1612             LCALL   L?0182
004F A3             1613             INC     DPTR
0050 E0             1614             MOVX    A,@DPTR
0051 120000   F     1615             LCALL   L?0192
0054 E4             1616             CLR     A
0055 F0             1617             MOVX    @DPTR,A
                    1618     ; *** sync lost ***
                    1619                             ; SOURCE LINE # 247
0056 120000   F     1620             LCALL   L?0182
0059 120000   F     1621             LCALL   L?0266
005C 80DF           1622             SJMP    ?C0012
005E                1623     ?C0013:
                    1624     ; *** sync lost ***
                    1625     ; *** sync lost ***
                    1626                             ; SOURCE LINE # 249
005E E4             1627             CLR     A
005F 900000   F     1628             MOV     DPTR,#OSPrioCur
0062 F0             1629             MOVX    @DPTR,A
                    1630     ; *** sync lost ***
                    1631                             ; SOURCE LINE # 250
0063 900000   F     1632             MOV     DPTR,#OSPrioHighRdy
0066 F0             1633             MOVX    @DPTR,A
                    1634     ; *** sync lost ***
                    1635                             ; SOURCE LINE # 251
0067 FB             1636             MOV     R3,A
0068 FA             1637             MOV     R2,A
0069 F9             1638             MOV     R1,A
A51 MACRO ASSEMBLER  UCOS_II                                                              07/03/2002 08:51:26 PAGE    26

                    1639     ; *** sync lost ***
                    1640                             ; SOURCE LINE # 252
006A 120000   F     1641             LCALL   L?0269
                    1642     ; *** sync lost ***
                    1643                             ; SOURCE LINE # 253
006D 900000   F     1644             MOV     DPTR,#OSTCBList
                    1645     ; *** sync lost ***
                    1646                             ; SOURCE LINE # 254
0070 120000   F     1647             LCALL   L?0181
0073 E4             1648             CLR     A
0074 F0             1649             MOVX    @DPTR,A
0075 A3             1650             INC     DPTR
0076 F0             1651             MOVX    @DPTR,A
0077                1652     ?C0015:
0077 120000   F     1653             LCALL   L?0182
007A 120000   F     1654             LCALL   L?0286
007D 9405           1655             SUBB    A,#05H
007F EE             1656             MOV     A,R6
0080 9400           1657             SUBB    A,#00H
0082 501E           1658             JNC     ?C0016
                    1659     ; *** sync lost ***
                    1660                             ; SOURCE LINE # 255
0084 120000   F     1661             LCALL   L?0203
0087 900000   F     1662             MOV     DPTR,#OSTCBPrioTbl
008A 75F003         1663             MOV     B,#03H
008D EF             1664             MOV     A,R7
008E 120000   F     1665             LCALL   ?C?OFFXADD
0091 EE             1666             MOV     A,R6
0092 75F003         1667             MOV     B,#03H
0095 A4             1668             MUL     AB
0096 2583           1669             ADD     A,DPH
0098 F583           1670             MOV     DPH,A
                    1671     ; *** sync lost ***
                    1672                             ; SOURCE LINE # 256
009A 120000   F     1673             LCALL   L?0181
009D 120000   F     1674             LCALL   L?0264
00A0 80D5           1675             SJMP    ?C0015
00A2                1676     ?C0016:
                    1677     ; *** sync lost ***
                    1678                             ; SOURCE LINE # 257
00A2 120000   F     1679             LCALL   L?0182
00A5 E4             1680             CLR     A
00A6 F0             1681             MOVX    @DPTR,A
00A7 A3             1682             INC     DPTR
00A8 F0             1683             MOVX    @DPTR,A
00A9                1684     ?C0018:
00A9 120000   F     1685             LCALL   L?0182
00AC 120000   F     1686             LCALL   L?0286
00AF 9404           1687             SUBB    A,#04H
00B1 EE             1688             MOV     A,R6
00B2 9400           1689             SUBB    A,#00H
00B4 5032           1690             JNC     ?C0019
                    1691     ; *** sync lost ***
                    1692                             ; SOURCE LINE # 258
00B6 7C00           1693             MOV     R4,#00H
00B8 7D17           1694             MOV     R5,#017H
00BA 120000   F     1695             LCALL   ?C?IMUL
00BD 7400     F     1696             MOV     A,#LOW (OSTCBTbl+017H)
00BF 2F             1697             ADD     A,R7
00C0 F9             1698             MOV     R1,A
00C1 7400     F     1699             MOV     A,#HIGH (OSTCBTbl+017H)
00C3 3E             1700             ADDC    A,R6
00C4 FA             1701             MOV     R2,A
00C5 7B01           1702             MOV     R3,#01H
00C7 120000   F     1703             LCALL   L?0182
00CA E0             1704             MOVX    A,@DPTR
A51 MACRO ASSEMBLER  UCOS_II                                                              07/03/2002 08:51:26 PAGE    27

00CB FE             1705             MOV     R6,A
00CC A3             1706             INC     DPTR
00CD E0             1707             MOVX    A,@DPTR
00CE 900000   F     1708             MOV     DPTR,#OSTCBTbl+03H
00D1 75F017         1709             MOV     B,#017H
00D4 120000   F     1710             LCALL   ?C?OFFXADD
00D7 EE             1711             MOV     A,R6
00D8 75F017         1712             MOV     B,#017H
00DB A4             1713             MUL     AB
00DC 2583           1714             ADD     A,DPH
00DE F583           1715             MOV     DPH,A
                    1716     ; *** sync lost ***
                    1717                             ; SOURCE LINE # 259
00E0 120000   F     1718             LCALL   L?0181
00E3 120000   F     1719             LCALL   L?0264
00E6 80C1           1720             SJMP    ?C0018
00E8                1721     ?C0019:
                    1722     ; *** sync lost ***
                    1723                             ; SOURCE LINE # 260
00E8 120000   F     1724             LCALL   L?0203
00EB 900000   F     1725             MOV     DPTR,#OSTCBTbl+05FH
00EE 120000   F     1726             LCALL   ?C?PSTXDATA
                    1727     ; *** sync lost ***
                    1728                             ; SOURCE LINE # 261
00F1 0B             1729             INC     R3
00F2 7A00     F     1730             MOV     R2,#HIGH (OSTCBTbl)
00F4 7900     F     1731             MOV     R1,#LOW (OSTCBTbl)
00F6 900000   F     1732             MOV     DPTR,#OSTCBFreeList
                    1733     ; *** sync lost ***
                    1734     ; *** sync lost ***
                    1735     ; *** sync lost ***
                    1736                             ; SOURCE LINE # 264
00F9 120000   F     1737             LCALL   L?0181
00FC E4             1738             CLR     A
00FD F0             1739             MOVX    @DPTR,A
00FE A3             1740             INC     DPTR
00FF F0             1741             MOVX    @DPTR,A
0100                1742     ?C0021:
0100 120000   F     1743             LCALL   L?0182
0103 120000   F     1744             LCALL   L?0287
0106 9402           1745             SUBB    A,#02H
0108 EE             1746             MOV     A,R6
0109 9400           1747             SUBB    A,#00H
010B 5026           1748             JNC     ?C0022
                    1749     ; *** sync lost ***
                    1750                             ; SOURCE LINE # 265
010D EF             1751             MOV     A,R7
010E 7803           1752             MOV     R0,#03H
0110                1753     ?C0155:
0110 C3             1754             CLR     C
0111 33             1755             RLC     A
0112 CE             1756             XCH     A,R6
0113 33             1757             RLC     A
0114 CE             1758             XCH     A,R6
0115 D8F9           1759             DJNZ    R0,?C0155
0117 FF             1760             MOV     R7,A
0118 2400     F     1761             ADD     A,#LOW (OSEventTbl+08H)
011A F9             1762             MOV     R1,A
011B 7400     F     1763             MOV     A,#HIGH (OSEventTbl+08H)
011D 3E             1764             ADDC    A,R6
011E FA             1765             MOV     R2,A
011F 7B01           1766             MOV     R3,#01H
0121 7400     F     1767             MOV     A,#LOW (OSEventTbl)
0123 2F             1768             ADD     A,R7
0124 F582           1769             MOV     DPL,A
0126 7400     F     1770             MOV     A,#HIGH (OSEventTbl)
A51 MACRO ASSEMBLER  UCOS_II                                                              07/03/2002 08:51:26 PAGE    28

0128 3E             1771             ADDC    A,R6
0129 F583           1772             MOV     DPH,A
                    1773     ; *** sync lost ***
                    1774                             ; SOURCE LINE # 266
012B 120000   F     1775             LCALL   L?0181
012E 120000   F     1776             LCALL   L?0265
0131 80CD           1777             SJMP    ?C0021
0133                1778     ?C0022:
                    1779     ; *** sync lost ***
                    1780                             ; SOURCE LINE # 267
0133 120000   F     1781             LCALL   L?0203
0136 900000   F     1782             MOV     DPTR,#OSEventTbl+010H
0139 120000   F     1783             LCALL   ?C?PSTXDATA
                    1784     ; *** sync lost ***
                    1785                             ; SOURCE LINE # 268
013C 0B             1786             INC     R3
013D 7A00     F     1787             MOV     R2,#HIGH (OSEventTbl)
013F 7900     F     1788             MOV     R1,#LOW (OSEventTbl)
0141 120000   F     1789             LCALL   L?0249
                    1790     ; *** sync lost ***
                    1791     ; *** sync lost ***
                    1792     ; *** sync lost ***
                    1793     ; *** sync lost ***
                    1794     ; *** sync lost ***
                    1795     ; *** sync lost ***
                    1796     ; *** sync lost ***
                    1797     ; *** sync lost ***
                    1798     ; *** sync lost ***
                    1799     ; *** sync lost ***
                    1800     ; *** sync lost ***
                    1801     ; *** sync lost ***
                    1802     ; *** sync lost ***
                    1803     ; *** sync lost ***
                    1804     ; *** sync lost ***
                    1805     ; *** sync lost ***
                    1806     ; *** sync lost ***
                    1807     ; *** sync lost ***
                    1808     ; *** sync lost ***
                    1809     ; *** sync lost ***
                    1810     ; *** sync lost ***
                    1811     ; *** sync lost ***
                    1812     ; *** sync lost ***
                    1813                             ; SOURCE LINE # 291
0144 120000   F     1814             LCALL   L?0230
0147 7404           1815             MOV     A,#04H
0149 7A00     F     1816             MOV     R2,#HIGH (OSTaskIdleStk+03FH)
014B 7900     F     1817             MOV     R1,#LOW (OSTaskIdleStk+03FH)
014D 120000   F     1818             LCALL   L?0183
0150 7BFF           1819             MOV     R3,#0FFH
0152 7A00     F     1820             MOV     R2,#HIGH (_?OSTaskIdle)
0154 7900     F     1821             MOV     R1,#LOW (_?OSTaskIdle)
0156 120000   F     1822             LCALL   _?OSTaskCreate
                    1823     ; *** sync lost ***
                    1824     ; *** sync lost ***
                    1825     ; *** sync lost ***
                    1826     ; *** sync lost ***
                    1827     ; *** sync lost ***
                    1828     ; *** sync lost ***
                    1829     ; *** sync lost ***
                    1830     ; *** sync lost ***
                    1831     ; *** sync lost ***
                    1832     ; *** sync lost ***
                    1833     ; *** sync lost ***
                    1834     ; *** sync lost ***
                    1835     ; *** sync lost ***
                    1836     ; *** sync lost ***
A51 MACRO ASSEMBLER  UCOS_II                                                              07/03/2002 08:51:26 PAGE    29

                    1837     ; *** sync lost ***
                    1838     ; *** sync lost ***
                    1839     ; *** sync lost ***
                    1840     ; *** sync lost ***
                    1841     ; *** sync lost ***
                    1842     ; *** sync lost ***
                    1843     ; *** sync lost ***
                    1844     ; *** sync lost ***
                    1845     ; *** sync lost ***
                    1846     ; *** sync lost ***
                    1847     ; *** sync lost ***
                    1848     ; *** sync lost ***
                    1849     ; *** sync lost ***
                    1850     ; *** sync lost ***
                    1851     ; *** sync lost ***
                    1852     ; *** sync lost ***
                    1853     ; *** sync lost ***
                    1854     ; *** sync lost ***
                    1855     ; *** sync lost ***
                    1856     ; *** sync lost ***
                    1857     ; *** sync lost ***
                    1858     ; *** sync lost ***
                    1859     ; *** sync lost ***
                    1860     ; *** sync lost ***
                    1861     ; *** sync lost ***
                    1862     ; *** sync lost ***
                    1863     ; *** sync lost ***
                    1864     ; *** sync lost ***
                    1865     ; *** sync lost ***
                    1866     ; *** sync lost ***
                    1867                             ; SOURCE LINE # 335
0159 120000   F     1868             LCALL   L?0230
015C 7403           1869             MOV     A,#03H
015E 7A00     F     1870             MOV     R2,#HIGH (OSTaskStatStk+03FH)
0160 7900     F     1871             MOV     R1,#LOW (OSTaskStatStk+03FH)
0162 120000   F     1872             LCALL   L?0183
0165 7BFF           1873             MOV     R3,#0FFH
0167 7A00     F     1874             MOV     R2,#HIGH (_?OSTaskStat)
0169 7900     F     1875             MOV     R1,#LOW (_?OSTaskStat)
016B 120000   F     1876             LCALL   _?OSTaskCreate
                    1877     ; *** sync lost ***
                    1878     ; *** sync lost ***
                    1879     ; *** sync lost ***
                    1880     ; *** sync lost ***
                    1881     ; *** sync lost ***
                    1882     ; *** sync lost ***
                    1883     ; *** sync lost ***
                    1884     ; *** sync lost ***
                    1885     ; *** sync lost ***
                    1886     ; *** sync lost ***
                    1887     ; *** sync lost ***
                    1888                             ; SOURCE LINE # 346
016E 900002         1889             MOV     DPTR,#02H
0171 020000   F     1890             LJMP    ?C?ADDXBP
                    1891     ; END OF _?OSInit
                    1892     
                    1893     ; *** sync lost ***
                    1894     ; *** sync lost ***
                    1895     ; *** sync lost ***
                    1896     ; *** sync lost ***
                    1897     ; *** sync lost ***
                    1898     ; *** sync lost ***
                    1899     ; *** sync lost ***
                    1900     ; *** sync lost ***
                    1901     ; *** sync lost ***
                    1902     ; *** sync lost ***
A51 MACRO ASSEMBLER  UCOS_II                                                              07/03/2002 08:51:26 PAGE    30

                    1903     ; *** sync lost ***
                    1904     ; *** sync lost ***
                    1905     ; *** sync lost ***
                    1906     ; *** sync lost ***
                    1907     ; *** sync lost ***
                    1908     ; *** sync lost ***
                    1909     ; *** sync lost ***
                    1910     ; *** sync lost ***
                    1911     ; *** sync lost ***
                    1912     ; *** sync lost ***
                    1913     ; *** sync lost ***
                    1914     ; *** sync lost ***
                    1915     ; *** sync lost ***
                    1916     ; *** sync lost ***
                    1917     ; *** sync lost ***
                    1918     
----                1919             RSEG  ?PR?_?OSIntEnter?UCOS_II
0000                1920     _?OSIntEnter:
                    1921                             ; SOURCE LINE # 371
                    1922     ; *** sync lost ***
                    1923     ; *** sync lost ***
0000 A2AFC2AF       1924              DB 0A2H, 0AFH, 0C2H, 0AFH, 0C0H, 0D0H;
0004 C0D0                    
                    1925     ; *** sync lost ***
                    1926                             ; SOURCE LINE # 374
0006 900000   F     1927             MOV     DPTR,#OSIntNesting
0009 E0             1928             MOVX    A,@DPTR
000A 04             1929             INC     A
000B F0             1930             MOVX    @DPTR,A
                    1931     ; *** sync lost ***
000C D0D092AF       1932              DB 0D0H, 0D0H, 092H, 0AFH;
                    1933     ; *** sync lost ***
                    1934                             ; SOURCE LINE # 376
0010 22             1935             RET     
                    1936     ; END OF _?OSIntEnter
                    1937     
                    1938     ; *** sync lost ***
                    1939     ; *** sync lost ***
                    1940     ; *** sync lost ***
                    1941     ; *** sync lost ***
                    1942     ; *** sync lost ***
                    1943     ; *** sync lost ***
                    1944     ; *** sync lost ***
                    1945     ; *** sync lost ***
                    1946     ; *** sync lost ***
                    1947     ; *** sync lost ***
                    1948     ; *** sync lost ***
                    1949     ; *** sync lost ***
                    1950     ; *** sync lost ***
                    1951     ; *** sync lost ***
                    1952     ; *** sync lost ***
                    1953     ; *** sync lost ***
                    1954     ; *** sync lost ***
                    1955     ; *** sync lost ***
                    1956     ; *** sync lost ***
                    1957     ; *** sync lost ***
                    1958     ; *** sync lost ***
                    1959     
----                1960             RSEG  ?PR?_?OSIntExit?UCOS_II
0000                1961     _?OSIntExit:
                    1962             USING   0
                    1963                             ; SOURCE LINE # 397
                    1964     ; *** sync lost ***
                    1965     ; *** sync lost ***
0000 A2AFC2AF       1966              DB 0A2H, 0AFH, 0C2H, 0AFH, 0C0H, 0D0H;
0004 C0D0                    
A51 MACRO ASSEMBLER  UCOS_II                                                              07/03/2002 08:51:26 PAGE    31

                    1967     ; *** sync lost ***
                    1968                             ; SOURCE LINE # 400
0006 900000   F     1969             MOV     DPTR,#OSLockNesting
0009 E0             1970             MOVX    A,@DPTR
000A FF             1971             MOV     R7,A
000B 900000   F     1972             MOV     DPTR,#OSIntNesting
000E E0             1973             MOVX    A,@DPTR
000F 14             1974             DEC     A
0010 FE             1975             MOV     R6,A
0011 F0             1976             MOVX    @DPTR,A
0012 EF             1977             MOV     A,R7
0013 4E             1978             ORL     A,R6
0014 7022           1979             JNZ     ?C0026
                    1980     ; *** sync lost ***
                    1981                             ; SOURCE LINE # 401
0016 120000   F     1982             LCALL   L?0204
0019 900000   F     1983             MOV     DPTR,#OSIntExitY
001C F0             1984             MOVX    @DPTR,A
                    1985     ; *** sync lost ***
                    1986                             ; SOURCE LINE # 402
001D E0             1987             MOVX    A,@DPTR
001E FF             1988             MOV     R7,A
001F 120000   F     1989             LCALL   L?0192
0022 120000   F     1990             LCALL   L?0206
                    1991     ; *** sync lost ***
                    1992                             ; SOURCE LINE # 403
0025 120000   F     1993             LCALL   L?0239
0028 E0             1994             MOVX    A,@DPTR
0029 6F             1995             XRL     A,R7
002A 600C           1996             JZ      ?C0026
                    1997     ; *** sync lost ***
                    1998                             ; SOURCE LINE # 404
002C 900000   F     1999             MOV     DPTR,#OSPrioHighRdy
002F 120000   F     2000             LCALL   L?0195
                    2001     ; *** sync lost ***
                    2002                             ; SOURCE LINE # 405
0032 120000   F     2003             LCALL   L?0208
                    2004     ; *** sync lost ***
                    2005                             ; SOURCE LINE # 406
0035 120000   F     2006             LCALL   _?OSIntCtxSw
                    2007     ; *** sync lost ***
                    2008                             ; SOURCE LINE # 407
                    2009     ; *** sync lost ***
                    2010                             ; SOURCE LINE # 408
0038                2011     ?C0026:
                    2012     ; *** sync lost ***
0038 D0D092AF       2013              DB 0D0H, 0D0H, 092H, 0AFH;
                    2014     ; *** sync lost ***
                    2015                             ; SOURCE LINE # 410
003C 22             2016             RET     
                    2017     ; END OF _?OSIntExit
                    2018     
                    2019     ; *** sync lost ***
                    2020     ; *** sync lost ***
                    2021     ; *** sync lost ***
                    2022     ; *** sync lost ***
                    2023     ; *** sync lost ***
                    2024     ; *** sync lost ***
                    2025     ; *** sync lost ***
                    2026     ; *** sync lost ***
                    2027     ; *** sync lost ***
                    2028     ; *** sync lost ***
                    2029     ; *** sync lost ***
                    2030     ; *** sync lost ***
                    2031     ; *** sync lost ***
                    2032     ; *** sync lost ***
A51 MACRO ASSEMBLER  UCOS_II                                                              07/03/2002 08:51:26 PAGE    32

                    2033     ; *** sync lost ***
                    2034     ; *** sync lost ***
                    2035     ; *** sync lost ***
                    2036     ; *** sync lost ***
                    2037     ; *** sync lost ***
                    2038     
----                2039             RSEG  ?PR?_?OSSched?UCOS_II
0000                2040     _?OSSched:
                    2041             USING   0
                    2042                             ; SOURCE LINE # 429
0000 120000   F     2043             LCALL   L?0230
                    2044     ; *** sync lost ***
                    2045     ; *** sync lost ***
0003 A2AFC2AF       2046              DB 0A2H, 0AFH, 0C2H, 0AFH, 0C0H, 0D0H;
0007 C0D0                    
                    2047     ; *** sync lost ***
                    2048     ; *** sync lost ***
                    2049     ; *** sync lost ***
                    2050     ; *** sync lost ***
                    2051                             ; SOURCE LINE # 435
0009 120000   F     2052             LCALL   L?0280
000C 7022           2053             JNZ     ?C0029
                    2054     ; *** sync lost ***
                    2055                             ; SOURCE LINE # 436
000E 120000   F     2056             LCALL   L?0204
0011 120000   F     2057             LCALL   L?0182
0014 F0             2058             MOVX    @DPTR,A
                    2059     ; *** sync lost ***
                    2060                             ; SOURCE LINE # 437
0015 E0             2061             MOVX    A,@DPTR
0016 FF             2062             MOV     R7,A
0017 120000   F     2063             LCALL   L?0192
001A 120000   F     2064             LCALL   L?0206
                    2065     ; *** sync lost ***
                    2066                             ; SOURCE LINE # 438
001D 120000   F     2067             LCALL   L?0239
0020 E0             2068             MOVX    A,@DPTR
0021 6F             2069             XRL     A,R7
0022 600C           2070             JZ      ?C0029
                    2071     ; *** sync lost ***
                    2072                             ; SOURCE LINE # 439
0024 900000   F     2073             MOV     DPTR,#OSPrioHighRdy
0027 120000   F     2074             LCALL   L?0195
                    2075     ; *** sync lost ***
                    2076                             ; SOURCE LINE # 440
002A 120000   F     2077             LCALL   L?0208
                    2078     ; *** sync lost ***
                    2079                             ; SOURCE LINE # 441
002D 120000   F     2080             LCALL   _?OSCtxSw
                    2081     ; *** sync lost ***
                    2082                             ; SOURCE LINE # 442
                    2083     ; *** sync lost ***
                    2084                             ; SOURCE LINE # 443
0030                2085     ?C0029:
                    2086     ; *** sync lost ***
0030 D0D092AF       2087              DB 0D0H, 0D0H, 092H, 0AFH;
                    2088     ; *** sync lost ***
                    2089                             ; SOURCE LINE # 445
0034 900001         2090             MOV     DPTR,#01H
0037 020000   F     2091             LJMP    ?C?ADDXBP
                    2092     ; END OF _?OSSched
                    2093     
                    2094     ; *** sync lost ***
                    2095     ; *** sync lost ***
                    2096     ; *** sync lost ***
                    2097     ; *** sync lost ***
A51 MACRO ASSEMBLER  UCOS_II                                                              07/03/2002 08:51:26 PAGE    33

                    2098     ; *** sync lost ***
                    2099     ; *** sync lost ***
                    2100     ; *** sync lost ***
                    2101     ; *** sync lost ***
                    2102     ; *** sync lost ***
                    2103     ; *** sync lost ***
                    2104     ; *** sync lost ***
                    2105     ; *** sync lost ***
                    2106     ; *** sync lost ***
                    2107     ; *** sync lost ***
                    2108     ; *** sync lost ***
                    2109     ; *** sync lost ***
                    2110     ; *** sync lost ***
                    2111     ; *** sync lost ***
                    2112     
----                2113             RSEG  ?PR?_?OSSchedLock?UCOS_II
0000                2114     _?OSSchedLock:
                    2115                             ; SOURCE LINE # 463
                    2116     ; *** sync lost ***
                    2117     ; *** sync lost ***
                    2118                             ; SOURCE LINE # 465
0000 900000   F     2119             MOV     DPTR,#OSRunning
0003 E0             2120             MOVX    A,@DPTR
0004 B40110         2121             CJNE    A,#01H,?C0033
                    2122     ; *** sync lost ***
0007 A2AFC2AF       2123              DB 0A2H, 0AFH, 0C2H, 0AFH, 0C0H, 0D0H;
000B C0D0                    
                    2124     ; *** sync lost ***
                    2125                             ; SOURCE LINE # 467
000D 900000   F     2126             MOV     DPTR,#OSLockNesting
0010 E0             2127             MOVX    A,@DPTR
0011 04             2128             INC     A
0012 F0             2129             MOVX    @DPTR,A
                    2130     ; *** sync lost ***
0013 D0D092AF       2131              DB 0D0H, 0D0H, 092H, 0AFH;
                    2132     ; *** sync lost ***
                    2133                             ; SOURCE LINE # 469
                    2134     ; *** sync lost ***
                    2135                             ; SOURCE LINE # 470
0017                2136     ?C0033:
0017 22             2137             RET     
                    2138     ; END OF _?OSSchedLock
                    2139     
                    2140     ; *** sync lost ***
                    2141     ; *** sync lost ***
                    2142     ; *** sync lost ***
                    2143     ; *** sync lost ***
                    2144     ; *** sync lost ***
                    2145     ; *** sync lost ***
                    2146     ; *** sync lost ***
                    2147     ; *** sync lost ***
                    2148     ; *** sync lost ***
                    2149     ; *** sync lost ***
                    2150     ; *** sync lost ***
                    2151     ; *** sync lost ***
                    2152     ; *** sync lost ***
                    2153     ; *** sync lost ***
                    2154     ; *** sync lost ***
                    2155     ; *** sync lost ***
                    2156     ; *** sync lost ***
                    2157     
----                2158             RSEG  ?PR?_?OSSchedUnlock?UCOS_II
0000                2159     _?OSSchedUnlock:
                    2160             USING   0
                    2161                             ; SOURCE LINE # 487
                    2162     ; *** sync lost ***
A51 MACRO ASSEMBLER  UCOS_II                                                              07/03/2002 08:51:26 PAGE    34

                    2163     ; *** sync lost ***
                    2164                             ; SOURCE LINE # 489
0000 900000   F     2165             MOV     DPTR,#OSRunning
0003 E0             2166             MOVX    A,@DPTR
0004 6401           2167             XRL     A,#01H
0006 7027           2168             JNZ     ?C0039
                    2169     ; *** sync lost ***
0008 A2AFC2AF       2170              DB 0A2H, 0AFH, 0C2H, 0AFH, 0C0H, 0D0H;
000C C0D0                    
                    2171     ; *** sync lost ***
                    2172                             ; SOURCE LINE # 491
000E 900000   F     2173             MOV     DPTR,#OSLockNesting
0011 E0             2174             MOVX    A,@DPTR
0012 D3             2175             SETB    C
0013 9400           2176             SUBB    A,#00H
0015 4014           2177             JC      ?C0035
                    2178     ; *** sync lost ***
                    2179                             ; SOURCE LINE # 492
0017 E0             2180             MOVX    A,@DPTR
0018 14             2181             DEC     A
0019 F0             2182             MOVX    @DPTR,A
                    2183     ; *** sync lost ***
                    2184                             ; SOURCE LINE # 493
001A 120000   F     2185             LCALL   L?0280
001D 7007           2186             JNZ     ?C0036
                    2187     ; *** sync lost ***
001F D0D092AF       2188              DB 0D0H, 0D0H, 092H, 0AFH;
                    2189     ; *** sync lost ***
                    2190                             ; SOURCE LINE # 495
0023 020000   F     2191             LJMP    _?OSSched
                    2192     ; *** sync lost ***
                    2193                             ; SOURCE LINE # 496
0026                2194     ?C0036:
                    2195     ; *** sync lost ***
0026 D0D092AF       2196              DB 0D0H, 0D0H, 092H, 0AFH;
                    2197     ; *** sync lost ***
                    2198                             ; SOURCE LINE # 498
                    2199     ; *** sync lost ***
                    2200                             ; SOURCE LINE # 499
002A 22             2201             RET     
002B                2202     ?C0035:
                    2203     ; *** sync lost ***
002B D0D092AF       2204              DB 0D0H, 0D0H, 092H, 0AFH;
                    2205     ; *** sync lost ***
                    2206                             ; SOURCE LINE # 501
                    2207     ; *** sync lost ***
                    2208                             ; SOURCE LINE # 502
                    2209     ; *** sync lost ***
                    2210                             ; SOURCE LINE # 503
002F                2211     ?C0039:
002F 22             2212             RET     
                    2213     ; END OF _?OSSchedUnlock
                    2214     
                    2215     ; *** sync lost ***
                    2216     ; *** sync lost ***
                    2217     ; *** sync lost ***
                    2218     ; *** sync lost ***
                    2219     ; *** sync lost ***
                    2220     ; *** sync lost ***
                    2221     ; *** sync lost ***
                    2222     ; *** sync lost ***
                    2223     ; *** sync lost ***
                    2224     ; *** sync lost ***
                    2225     ; *** sync lost ***
                    2226     ; *** sync lost ***
                    2227     ; *** sync lost ***
A51 MACRO ASSEMBLER  UCOS_II                                                              07/03/2002 08:51:26 PAGE    35

                    2228     ; *** sync lost ***
                    2229     ; *** sync lost ***
                    2230     ; *** sync lost ***
                    2231     ; *** sync lost ***
                    2232     ; *** sync lost ***
                    2233     ; *** sync lost ***
                    2234     ; *** sync lost ***
                    2235     
----                2236             RSEG  ?PR?_?OSStart?UCOS_II
0000                2237     _?OSStart:
                    2238             USING   0
                    2239                             ; SOURCE LINE # 523
0000 120000   F     2240             LCALL   L?0224
                    2241     ; *** sync lost ***
                    2242     ; *** sync lost ***
                    2243     ; *** sync lost ***
                    2244     ; *** sync lost ***
                    2245     ; *** sync lost ***
                    2246     ; *** sync lost ***
                    2247                             ; SOURCE LINE # 529
0003 900000   F     2248             MOV     DPTR,#OSRunning
0006 E0             2249             MOVX    A,@DPTR
0007 7031           2250             JNZ     ?C0041
                    2251     ; *** sync lost ***
                    2252                             ; SOURCE LINE # 530
0009 120000   F     2253             LCALL   L?0205
000C 120000   F     2254             LCALL   L?0182
000F F0             2255             MOVX    @DPTR,A
                    2256     ; *** sync lost ***
                    2257                             ; SOURCE LINE # 531
0010 E0             2258             MOVX    A,@DPTR
0011 FF             2259             MOV     R7,A
0012 120000   F     2260             LCALL   L?0192
0015 120000   F     2261             LCALL   L?0206
0018 120000   F     2262             LCALL   L?0182
001B A3             2263             INC     DPTR
001C F0             2264             MOVX    @DPTR,A
                    2265     ; *** sync lost ***
                    2266                             ; SOURCE LINE # 532
001D EF             2267             MOV     A,R7
001E 33             2268             RLC     A
001F 33             2269             RLC     A
0020 33             2270             RLC     A
0021 54F8           2271             ANL     A,#0F8H
0023 FF             2272             MOV     R7,A
0024 120000   F     2273             LCALL   L?0182
0027 A3             2274             INC     DPTR
0028 E0             2275             MOVX    A,@DPTR
0029 2F             2276             ADD     A,R7
                    2277     ; *** sync lost ***
                    2278                             ; SOURCE LINE # 533
002A 120000   F     2279             LCALL   L?0240
002D F0             2280             MOVX    @DPTR,A
                    2281     ; *** sync lost ***
                    2282                             ; SOURCE LINE # 534
002E 120000   F     2283             LCALL   L?0196
0031 120000   F     2284             LCALL   ?C?PLDXDATA
                    2285     ; *** sync lost ***
                    2286                             ; SOURCE LINE # 535
0034 120000   F     2287             LCALL   L?0269
                    2288     ; *** sync lost ***
                    2289                             ; SOURCE LINE # 536
0037 120000   F     2290             LCALL   _?OSStartHighRdy
                    2291     ; *** sync lost ***
                    2292                             ; SOURCE LINE # 537
                    2293     ; *** sync lost ***
A51 MACRO ASSEMBLER  UCOS_II                                                              07/03/2002 08:51:26 PAGE    36

                    2294                             ; SOURCE LINE # 538
003A                2295     ?C0041:
003A 900002         2296             MOV     DPTR,#02H
003D 020000   F     2297             LJMP    ?C?ADDXBP
                    2298     ; END OF _?OSStart
                    2299     
                    2300     ; *** sync lost ***
                    2301     ; *** sync lost ***
                    2302     ; *** sync lost ***
                    2303     ; *** sync lost ***
                    2304     ; *** sync lost ***
                    2305     ; *** sync lost ***
                    2306     ; *** sync lost ***
                    2307     ; *** sync lost ***
                    2308     ; *** sync lost ***
                    2309     ; *** sync lost ***
                    2310     ; *** sync lost ***
                    2311     ; *** sync lost ***
                    2312     ; *** sync lost ***
                    2313     ; *** sync lost ***
                    2314     ; *** sync lost ***
                    2315     ; *** sync lost ***
                    2316     ; *** sync lost ***
                    2317     ; *** sync lost ***
                    2318     ; *** sync lost ***
                    2319     ; *** sync lost ***
                    2320     ; *** sync lost ***
                    2321     ; *** sync lost ***
                    2322     ; *** sync lost ***
                    2323     
----                2324             RSEG  ?PR?_?OSStatInit?UCOS_II
0000                2325     _?OSStatInit:
                    2326             USING   0
                    2327                             ; SOURCE LINE # 561
                    2328     ; *** sync lost ***
                    2329     ; *** sync lost ***
                    2330                             ; SOURCE LINE # 563
0000 7E00           2331             MOV     R6,#00H
0002 7F02           2332             MOV     R7,#02H
0004 120000   F     2333             LCALL   _?OSTimeDly
                    2334     ; *** sync lost ***
0007 A2AFC2AF       2335              DB 0A2H, 0AFH, 0C2H, 0AFH, 0C0H, 0D0H;
000B C0D0                    
                    2336     ; *** sync lost ***
                    2337                             ; SOURCE LINE # 565
000D 900000   F     2338             MOV     DPTR,#OSIdleCtr
0010 120000   F     2339             LCALL   ?C?LSTKXDATA
0013 00             2340             DB      00H
0014 00             2341             DB      00H
0015 00             2342             DB      00H
0016 00             2343             DB      00H
                    2344     ; *** sync lost ***
0017 D0D092AF       2345              DB 0D0H, 0D0H, 092H, 0AFH;
                    2346     ; *** sync lost ***
                    2347                             ; SOURCE LINE # 567
001B 7E00           2348             MOV     R6,#00H
001D 7F64           2349             MOV     R7,#064H
001F 120000   F     2350             LCALL   _?OSTimeDly
                    2351     ; *** sync lost ***
0022 A2AFC2AF       2352              DB 0A2H, 0AFH, 0C2H, 0AFH, 0C0H, 0D0H;
0026 C0D0                    
                    2353     ; *** sync lost ***
                    2354                             ; SOURCE LINE # 569
0028 120000   F     2355             LCALL   L?0270
002B 900000   F     2356             MOV     DPTR,#OSIdleCtrMax
002E 120000   F     2357             LCALL   ?C?LSTXDATA
A51 MACRO ASSEMBLER  UCOS_II                                                              07/03/2002 08:51:26 PAGE    37

                    2358     ; *** sync lost ***
                    2359                             ; SOURCE LINE # 570
0031 900000   F     2360             MOV     DPTR,#OSStatRdy
0034 7401           2361             MOV     A,#01H
0036 F0             2362             MOVX    @DPTR,A
                    2363     ; *** sync lost ***
0037 D0D092AF       2364              DB 0D0H, 0D0H, 092H, 0AFH;
                    2365     ; *** sync lost ***
                    2366                             ; SOURCE LINE # 572
003B 22             2367             RET     
                    2368     ; END OF _?OSStatInit
                    2369     
                    2370     ; *** sync lost ***
                    2371     ; *** sync lost ***
                    2372     ; *** sync lost ***
                    2373     ; *** sync lost ***
                    2374     ; *** sync lost ***
                    2375     ; *** sync lost ***
                    2376     ; *** sync lost ***
                    2377     ; *** sync lost ***
                    2378     ; *** sync lost ***
                    2379     ; *** sync lost ***
                    2380     ; *** sync lost ***
                    2381     ; *** sync lost ***
                    2382     ; *** sync lost ***
                    2383     ; *** sync lost ***
                    2384     ; *** sync lost ***
                    2385     ; *** sync lost ***
                    2386     
----                2387             RSEG  ?PR?_?OSTaskIdle?UCOS_II
0000                2388     _?OSTaskIdle:
                    2389             USING   0
                    2390                             ; SOURCE LINE # 588
0000 120000   F     2391             LCALL   L?0216
                    2392     ; *** sync lost ***
                    2393     ; *** sync lost ***
                    2394                             ; SOURCE LINE # 590
0003 120000   F     2395             LCALL   L?0181
0006 120000   F     2396             LCALL   ?C?PLDXDATA
0009 120000   F     2397             LCALL   L?0182
000C 120000   F     2398             LCALL   ?C?PSTXDATA
                    2399     ; *** sync lost ***
                    2400                             ; SOURCE LINE # 591
000F                2401     ?C0043:
                    2402     ; *** sync lost ***
000F A2AFC2AF       2403              DB 0A2H, 0AFH, 0C2H, 0AFH, 0C0H, 0D0H;
0013 C0D0                    
                    2404     ; *** sync lost ***
                    2405                             ; SOURCE LINE # 593
0015 120000   F     2406             LCALL   L?0270
0018 900000   F     2407             MOV     DPTR,#OSIdleCtr
001B 120000   F     2408             LCALL   L?0209
                    2409     ; *** sync lost ***
001E D0D092AF       2410              DB 0D0H, 0D0H, 092H, 0AFH;
                    2411     ; *** sync lost ***
                    2412                             ; SOURCE LINE # 595
0022 80EB           2413             SJMP    ?C0043
                    2414     ; END OF _?OSTaskIdle
                    2415     
                    2416     ; *** sync lost ***
                    2417     ; *** sync lost ***
                    2418     ; *** sync lost ***
                    2419     ; *** sync lost ***
                    2420     ; *** sync lost ***
                    2421     ; *** sync lost ***
                    2422     ; *** sync lost ***
A51 MACRO ASSEMBLER  UCOS_II                                                              07/03/2002 08:51:26 PAGE    38

                    2423     ; *** sync lost ***
                    2424     ; *** sync lost ***
                    2425     ; *** sync lost ***
                    2426     ; *** sync lost ***
                    2427     ; *** sync lost ***
                    2428     ; *** sync lost ***
                    2429     ; *** sync lost ***
                    2430     ; *** sync lost ***
                    2431     ; *** sync lost ***
                    2432     ; *** sync lost ***
                    2433     ; *** sync lost ***
                    2434     ; *** sync lost ***
                    2435     ; *** sync lost ***
                    2436     ; *** sync lost ***
                    2437     ; *** sync lost ***
                    2438     ; *** sync lost ***
                    2439     ; *** sync lost ***
                    2440     ; *** sync lost ***
                    2441     ; *** sync lost ***
                    2442     ; *** sync lost ***
                    2443     ; *** sync lost ***
                    2444     ; *** sync lost ***
                    2445     ; *** sync lost ***
                    2446     
----                2447             RSEG  ?PR?_?OSTaskStat?UCOS_II
0000                2448     _?OSTaskStat:
                    2449             USING   0
                    2450                             ; SOURCE LINE # 625
0000 120000   F     2451             LCALL   L?0185
0003 90FFFB         2452             MOV     DPTR,#0FFFBH
0006 120000   F     2453             LCALL   ?C?ADDXBP
                    2454     ; *** sync lost ***
                    2455     ; *** sync lost ***
                    2456     ; *** sync lost ***
                    2457     ; *** sync lost ***
                    2458     ; *** sync lost ***
                    2459     ; *** sync lost ***
                    2460                             ; SOURCE LINE # 631
0009 900005         2461             MOV     DPTR,#05H
000C 120000   F     2462             LCALL   L?0188
000F 120000   F     2463             LCALL   L?0282
0012 120000   F     2464             LCALL   ?C?PSTXDATA
0015                2465     ?C0046:
                    2466     ; *** sync lost ***
                    2467                             ; SOURCE LINE # 632
0015 900000   F     2468             MOV     DPTR,#OSStatRdy
0018 E0             2469             MOVX    A,@DPTR
0019 7008           2470             JNZ     ?C0048
                    2471     ; *** sync lost ***
                    2472                             ; SOURCE LINE # 633
001B FE             2473             MOV     R6,A
001C 7FC8           2474             MOV     R7,#0C8H
001E 120000   F     2475             LCALL   _?OSTimeDly
                    2476     ; *** sync lost ***
                    2477                             ; SOURCE LINE # 634
0021 80F2           2478             SJMP    ?C0046
                    2479     ; *** sync lost ***
                    2480                             ; SOURCE LINE # 635
0023                2481     ?C0048:
                    2482     ; *** sync lost ***
0023 A2AFC2AF       2483              DB 0A2H, 0AFH, 0C2H, 0AFH, 0C0H, 0D0H;
0027 C0D0                    
                    2484     ; *** sync lost ***
                    2485                             ; SOURCE LINE # 637
0029 120000   F     2486             LCALL   L?0271
002C 900000   F     2487             MOV     DPTR,#OSIdleCtrRun
A51 MACRO ASSEMBLER  UCOS_II                                                              07/03/2002 08:51:26 PAGE    39

002F 120000   F     2488             LCALL   ?C?LSTXDATA
                    2489     ; *** sync lost ***
                    2490                             ; SOURCE LINE # 638
0032 120000   F     2491             LCALL   L?0271
0035 120000   F     2492             LCALL   L?0182
0038 120000   F     2493             LCALL   ?C?LSTXDATA
                    2494     ; *** sync lost ***
                    2495                             ; SOURCE LINE # 639
003B 900000   F     2496             MOV     DPTR,#OSIdleCtr
003E 120000   F     2497             LCALL   ?C?LSTKXDATA
0041 00             2498             DB      00H
0042 00             2499             DB      00H
0043 00             2500             DB      00H
0044 00             2501             DB      00H
                    2502     ; *** sync lost ***
0045 D0D092AF       2503              DB 0D0H, 0D0H, 092H, 0AFH;
                    2504     ; *** sync lost ***
                    2505                             ; SOURCE LINE # 641
0049 E4             2506             CLR     A
004A FF             2507             MOV     R7,A
004B FE             2508             MOV     R6,A
004C FD             2509             MOV     R5,A
004D FC             2510             MOV     R4,A
004E 900000   F     2511             MOV     DPTR,#OSIdleCtrMax
0051 120000   F     2512             LCALL   ?C?LLDXDATA0
0054 D3             2513             SETB    C
0055 120000   F     2514             LCALL   ?C?ULCMP
0058 4046           2515             JC      ?C0050
                    2516     ; *** sync lost ***
                    2517                             ; SOURCE LINE # 642
005A E4             2518             CLR     A
005B 7F64           2519             MOV     R7,#064H
005D FE             2520             MOV     R6,A
005E FD             2521             MOV     R5,A
005F FC             2522             MOV     R4,A
0060 120000   F     2523             LCALL   L?0182
0063 120000   F     2524             LCALL   ?C?LLDXDATA0
0066 120000   F     2525             LCALL   ?C?LMUL
0069 900000   F     2526             MOV     DPTR,#OSIdleCtrMax
006C 120000   F     2527             LCALL   ?C?LLDXDATA0
006F 120000   F     2528             LCALL   ?C?ULDIV
0072 C3             2529             CLR     C
0073 7464           2530             MOV     A,#064H
0075 9F             2531             SUBB    A,R7
0076 120000   F     2532             LCALL   L?0211
0079 EF             2533             MOV     A,R7
007A F0             2534             MOVX    @DPTR,A
                    2535     ; *** sync lost ***
                    2536                             ; SOURCE LINE # 643
007B 120000   F     2537             LCALL   L?0212
007E E0             2538             MOVX    A,@DPTR
007F FF             2539             MOV     R7,A
0080 D3             2540             SETB    C
0081 6480           2541             XRL     A,#080H
0083 94E4           2542             SUBB    A,#0E4H
0085 4008           2543             JC      ?C0051
                    2544     ; *** sync lost ***
                    2545                             ; SOURCE LINE # 644
0087 900000   F     2546             MOV     DPTR,#OSCPUUsage
008A 7464           2547             MOV     A,#064H
008C F0             2548             MOVX    @DPTR,A
                    2549     ; *** sync lost ***
                    2550                             ; SOURCE LINE # 645
008D 8016           2551             SJMP    ?C0055
008F                2552     ?C0051:
008F C3             2553             CLR     C
A51 MACRO ASSEMBLER  UCOS_II                                                              07/03/2002 08:51:26 PAGE    40

0090 EF             2554             MOV     A,R7
0091 6480           2555             XRL     A,#080H
0093 9480           2556             SUBB    A,#080H
0095 5002           2557             JNC     ?C0053
                    2558     ; *** sync lost ***
                    2559                             ; SOURCE LINE # 646
                    2560     ; *** sync lost ***
                    2561                             ; SOURCE LINE # 647
0097 8007           2562             SJMP    ?C0169
0099                2563     ?C0053:
                    2564     ; *** sync lost ***
                    2565                             ; SOURCE LINE # 648
0099 900000   F     2566             MOV     DPTR,#OSCPUUsage
009C EF             2567             MOV     A,R7
009D F0             2568             MOVX    @DPTR,A
                    2569     ; *** sync lost ***
                    2570                             ; SOURCE LINE # 649
                    2571     ; *** sync lost ***
                    2572                             ; SOURCE LINE # 650
009E 8005           2573             SJMP    ?C0055
00A0                2574     ?C0050:
                    2575     ; *** sync lost ***
                    2576                             ; SOURCE LINE # 651
00A0                2577     ?C0169:
00A0 E4             2578             CLR     A
00A1 900000   F     2579             MOV     DPTR,#OSCPUUsage
00A4 F0             2580             MOVX    @DPTR,A
                    2581     ; *** sync lost ***
                    2582                             ; SOURCE LINE # 652
00A5                2583     ?C0055:
                    2584     ; *** sync lost ***
                    2585                             ; SOURCE LINE # 653
00A5 120000   F     2586             LCALL   _?OSTaskStatHook
                    2587     ; *** sync lost ***
                    2588                             ; SOURCE LINE # 654
00A8 7E00           2589             MOV     R6,#00H
00AA 7F64           2590             MOV     R7,#064H
00AC 120000   F     2591             LCALL   _?OSTimeDly
                    2592     ; *** sync lost ***
                    2593                             ; SOURCE LINE # 655
00AF 0100     F     2594             AJMP    ?C0048
                    2595     ; END OF _?OSTaskStat
                    2596     
                    2597     ; *** sync lost ***
                    2598     ; *** sync lost ***
                    2599     ; *** sync lost ***
                    2600     ; *** sync lost ***
                    2601     ; *** sync lost ***
                    2602     ; *** sync lost ***
                    2603     ; *** sync lost ***
                    2604     ; *** sync lost ***
                    2605     ; *** sync lost ***
                    2606     ; *** sync lost ***
                    2607     ; *** sync lost ***
                    2608     ; *** sync lost ***
                    2609     ; *** sync lost ***
                    2610     ; *** sync lost ***
                    2611     ; *** sync lost ***
                    2612     ; *** sync lost ***
                    2613     ; *** sync lost ***
                    2614     ; *** sync lost ***
                    2615     ; *** sync lost ***
                    2616     ; *** sync lost ***
                    2617     ; *** sync lost ***
                    2618     ; *** sync lost ***
                    2619     ; *** sync lost ***
A51 MACRO ASSEMBLER  UCOS_II                                                              07/03/2002 08:51:26 PAGE    41

                    2620     ; *** sync lost ***
                    2621     ; *** sync lost ***
                    2622     ; *** sync lost ***
                    2623     ; *** sync lost ***
                    2624     ; *** sync lost ***
                    2625     ; *** sync lost ***
                    2626     ; *** sync lost ***
                    2627     ; *** sync lost ***
                    2628     ; *** sync lost ***
                    2629     ; *** sync lost ***
                    2630     ; *** sync lost ***
                    2631     ; *** sync lost ***
                    2632     ; *** sync lost ***
                    2633     ; *** sync lost ***
                    2634     ; *** sync lost ***
                    2635     ; *** sync lost ***
                    2636     ; *** sync lost ***
                    2637     ; *** sync lost ***
                    2638     ; *** sync lost ***
                    2639     ; *** sync lost ***
                    2640     ; *** sync lost ***
                    2641     ; *** sync lost ***
                    2642     ; *** sync lost ***
                    2643     ; *** sync lost ***
                    2644     
----                2645             RSEG  ?PR?_?OSTCBInit?UCOS_II
0000                2646     _?OSTCBInit:
                    2647             USING   0
                    2648                             ; SOURCE LINE # 702
0000 120000   F     2649             LCALL   L?0185
0003 120000   F     2650             LCALL   L?0213
                    2651     ; *** sync lost ***
                    2652     ; *** sync lost ***
0006 A2AFC2AF       2653              DB 0A2H, 0AFH, 0C2H, 0AFH, 0C0H, 0D0H;
000A C0D0                    
                    2654     ; *** sync lost ***
                    2655     ; *** sync lost ***
                    2656     ; *** sync lost ***
                    2657     ; *** sync lost ***
                    2658                             ; SOURCE LINE # 708
000C 900000   F     2659             MOV     DPTR,#OSTCBFreeList
                    2660     ; *** sync lost ***
                    2661                             ; SOURCE LINE # 709
000F 120000   F     2662             LCALL   L?0179
0012 120000   F     2663             LCALL   L?0218
0015 7002           2664             JNZ     $ + 4H
0017 0100     F     2665             AJMP    ?C0057
                    2666     ; *** sync lost ***
                    2667                             ; SOURCE LINE # 710
0019 120000   F     2668             LCALL   L?0182
001C 120000   F     2669             LCALL   L?0288
001F 120000   F     2670             LCALL   ?C?PLDOPTR
0022 900000   F     2671             MOV     DPTR,#OSTCBFreeList
0025 120000   F     2672             LCALL   ?C?PSTXDATA
                    2673     ; *** sync lost ***
0028 D0D092AF       2674              DB 0D0H, 0D0H, 092H, 0AFH;
                    2675     ; *** sync lost ***
                    2676                             ; SOURCE LINE # 712
002C 900004         2677             MOV     DPTR,#04H
002F 120000   F     2678             LCALL   L?0188
0032 C003           2679             PUSH    AR3
0034 C002           2680             PUSH    AR2
0036 C001           2681             PUSH    AR1
0038 120000   F     2682             LCALL   L?0182
003B 120000   F     2683             LCALL   ?C?PLDXDATA
003E 120000   F     2684             LCALL   ?C?PSTPTR
A51 MACRO ASSEMBLER  UCOS_II                                                              07/03/2002 08:51:26 PAGE    42

                    2685     ; *** sync lost ***
                    2686                             ; SOURCE LINE # 713
0041 120000   F     2687             LCALL   L?0220
0044 E0             2688             MOVX    A,@DPTR
0045 FF             2689             MOV     R7,A
0046 120000   F     2690             LCALL   L?0182
0049 120000   F     2691             LCALL   ?C?PLDXDATA
004C 900012         2692             MOV     DPTR,#012H
004F EF             2693             MOV     A,R7
0050 120000   F     2694             LCALL   ?C?CSTOPTR
                    2695     ; *** sync lost ***
                    2696                             ; SOURCE LINE # 714
0053 900011         2697             MOV     DPTR,#011H
0056 E4             2698             CLR     A
0057 120000   F     2699             LCALL   ?C?CSTOPTR
                    2700     ; *** sync lost ***
                    2701                             ; SOURCE LINE # 715
005A 120000   F     2702             LCALL   L?0236
                    2703     ; *** sync lost ***
                    2704     ; *** sync lost ***
                    2705     ; *** sync lost ***
                    2706     ; *** sync lost ***
                    2707     ; *** sync lost ***
                    2708     ; *** sync lost ***
                    2709     ; *** sync lost ***
                    2710     ; *** sync lost ***
                    2711     ; *** sync lost ***
                    2712                             ; SOURCE LINE # 724
005D 90000E         2713             MOV     DPTR,#0EH
0060 120000   F     2714             LCALL   L?0188
0063 90000E         2715             MOV     DPTR,#0EH
0066 120000   F     2716             LCALL   ?C?XBPOFF
0069 120000   F     2717             LCALL   ?C?PSTXDATA
                    2718     ; *** sync lost ***
                    2719                             ; SOURCE LINE # 725
006C 90000C         2720             MOV     DPTR,#0CH
006F 120000   F     2721             LCALL   L?0258
0072 90000C         2722             MOV     DPTR,#0CH
0075 120000   F     2723             LCALL   L?0260
                    2724     ; *** sync lost ***
                    2725                             ; SOURCE LINE # 726
0078 900007         2726             MOV     DPTR,#07H
007B 120000   F     2727             LCALL   L?0188
007E 120000   F     2728             LCALL   L?0255
0081 120000   F     2729             LCALL   ?C?PSTXDATA
                    2730     ; *** sync lost ***
                    2731                             ; SOURCE LINE # 727
0084 900011         2732             MOV     DPTR,#011H
0087 120000   F     2733             LCALL   L?0258
008A 900011         2734             MOV     DPTR,#011H
008D 120000   F     2735             LCALL   L?0260
                    2736     ; *** sync lost ***
                    2737                             ; SOURCE LINE # 728
0090 90000A         2738             MOV     DPTR,#0AH
0093 120000   F     2739             LCALL   L?0259
0096 FD             2740             MOV     R5,A
0097 90000A         2741             MOV     DPTR,#0AH
009A 120000   F     2742             LCALL   L?0261
                    2743     ; *** sync lost ***
                    2744     ; *** sync lost ***
                    2745     ; *** sync lost ***
                    2746     ; *** sync lost ***
                    2747     ; *** sync lost ***
                    2748     ; *** sync lost ***
                    2749     ; *** sync lost ***
                    2750                             ; SOURCE LINE # 735
A51 MACRO ASSEMBLER  UCOS_II                                                              07/03/2002 08:51:26 PAGE    43

009D EF             2751             MOV     A,R7
009E 13             2752             RRC     A
009F 13             2753             RRC     A
00A0 13             2754             RRC     A
00A1 541F           2755             ANL     A,#01FH
00A3 FE             2756             MOV     R6,A
00A4 120000   F     2757             LCALL   L?0182
00A7 120000   F     2758             LCALL   ?C?PLDXDATA
00AA 900014         2759             MOV     DPTR,#014H
00AD EE             2760             MOV     A,R6
00AE 120000   F     2761             LCALL   ?C?CSTOPTR
                    2762     ; *** sync lost ***
                    2763                             ; SOURCE LINE # 736
00B1 900014         2764             MOV     DPTR,#014H
00B4 120000   F     2765             LCALL   L?0231
00B7 900016         2766             MOV     DPTR,#016H
00BA 120000   F     2767             LCALL   ?C?CSTOPTR
                    2768     ; *** sync lost ***
                    2769                             ; SOURCE LINE # 737
00BD EF             2770             MOV     A,R7
00BE 5407           2771             ANL     A,#07H
00C0 900013         2772             MOV     DPTR,#013H
00C3 120000   F     2773             LCALL   ?C?CSTOPTR
                    2774     ; *** sync lost ***
                    2775                             ; SOURCE LINE # 738
00C6 900013         2776             MOV     DPTR,#013H
00C9 120000   F     2777             LCALL   L?0231
00CC 900015         2778             MOV     DPTR,#015H
                    2779     ; *** sync lost ***
                    2780     ; *** sync lost ***
                    2781     ; *** sync lost ***
                    2782                             ; SOURCE LINE # 741
00CF 120000   F     2783             LCALL   L?0202
00D2 C003           2784             PUSH    AR3
00D4 C002           2785             PUSH    AR2
00D6 C001           2786             PUSH    AR1
00D8 120000   F     2787             LCALL   L?0182
00DB 120000   F     2788             LCALL   ?C?PLDXDATA
00DE 900009         2789             MOV     DPTR,#09H
00E1 120000   F     2790             LCALL   ?C?PSTOPTR
                    2791     ; *** sync lost ***
                    2792     ; *** sync lost ***
                    2793     ; *** sync lost ***
                    2794     ; *** sync lost ***
                    2795                             ; SOURCE LINE # 745
00E4 120000   F     2796             LCALL   L?0203
00E7 C003           2797             PUSH    AR3
00E9 C002           2798             PUSH    AR2
00EB C001           2799             PUSH    AR1
00ED 120000   F     2800             LCALL   L?0182
00F0 120000   F     2801             LCALL   ?C?PLDXDATA
00F3 90000C         2802             MOV     DPTR,#0CH
00F6 120000   F     2803             LCALL   ?C?PSTOPTR
                    2804     ; *** sync lost ***
                    2805     ; *** sync lost ***
                    2806     ; *** sync lost ***
00F9 A2AFC2AF       2807              DB 0A2H, 0AFH, 0C2H, 0AFH, 0C0H, 0D0H;
00FD C0D0                    
                    2808     ; *** sync lost ***
                    2809                             ; SOURCE LINE # 749
00FF 120000   F     2810             LCALL   L?0182
0102 120000   F     2811             LCALL   ?C?PLDXDATA
0105 120000   F     2812             LCALL   L?0193
0108 120000   F     2813             LCALL   ?C?PSTXDATA
                    2814     ; *** sync lost ***
                    2815                             ; SOURCE LINE # 750
A51 MACRO ASSEMBLER  UCOS_II                                                              07/03/2002 08:51:26 PAGE    44

010B 900000   F     2816             MOV     DPTR,#OSTCBList
010E 120000   F     2817             LCALL   ?C?PLDXDATA
0111 C003           2818             PUSH    AR3
0113 C002           2819             PUSH    AR2
0115 C001           2820             PUSH    AR1
0117 120000   F     2821             LCALL   L?0182
011A 120000   F     2822             LCALL   L?0288
011D 120000   F     2823             LCALL   ?C?PSTOPTR
                    2824     ; *** sync lost ***
                    2825                             ; SOURCE LINE # 751
0120 120000   F     2826             LCALL   L?0203
0123 C003           2827             PUSH    AR3
0125 C002           2828             PUSH    AR2
0127 C001           2829             PUSH    AR1
0129 120000   F     2830             LCALL   L?0182
012C 120000   F     2831             LCALL   L?0272
012F 120000   F     2832             LCALL   ?C?PSTOPTR
                    2833     ; *** sync lost ***
                    2834                             ; SOURCE LINE # 752
0132 900000   F     2835             MOV     DPTR,#OSTCBList
0135 120000   F     2836             LCALL   L?0218
0138 6015           2837             JZ      ?C0058
                    2838     ; *** sync lost ***
                    2839                             ; SOURCE LINE # 753
013A 120000   F     2840             LCALL   L?0182
013D 120000   F     2841             LCALL   ?C?PLDXDATA
0140 C003           2842             PUSH    AR3
0142 C002           2843             PUSH    AR2
0144 C001           2844             PUSH    AR1
0146 900000   F     2845             MOV     DPTR,#OSTCBList
0149 120000   F     2846             LCALL   L?0272
014C 120000   F     2847             LCALL   ?C?PSTOPTR
                    2848     ; *** sync lost ***
                    2849                             ; SOURCE LINE # 754
014F                2850     ?C0058:
                    2851     ; *** sync lost ***
                    2852                             ; SOURCE LINE # 755
014F 120000   F     2853             LCALL   L?0182
0152 120000   F     2854             LCALL   ?C?PLDXDATA
0155 900000   F     2855             MOV     DPTR,#OSTCBList
0158 120000   F     2856             LCALL   ?C?PSTXDATA
                    2857     ; *** sync lost ***
                    2858                             ; SOURCE LINE # 756
015B 900000   F     2859             MOV     DPTR,#OSRdyGrp
015E E0             2860             MOVX    A,@DPTR
015F FF             2861             MOV     R7,A
0160 120000   F     2862             LCALL   L?0182
                    2863     ; *** sync lost ***
                    2864                             ; SOURCE LINE # 757
0163 120000   F     2865             LCALL   L?0189
0166 C083           2866             PUSH    DPH
0168 C082           2867             PUSH    DPL
016A E0             2868             MOVX    A,@DPTR
016B FF             2869             MOV     R7,A
016C 120000   F     2870             LCALL   L?0182
016F 120000   F     2871             LCALL   L?0233
0172 FE             2872             MOV     R6,A
0173 EF             2873             MOV     A,R7
0174 4E             2874             ORL     A,R6
0175 D082           2875             POP     DPL
0177 D083           2876             POP     DPH
0179 F0             2877             MOVX    @DPTR,A
                    2878     ; *** sync lost ***
017A D0D092AF       2879              DB 0D0H, 0D0H, 092H, 0AFH;
                    2880     ; *** sync lost ***
                    2881                             ; SOURCE LINE # 759
A51 MACRO ASSEMBLER  UCOS_II                                                              07/03/2002 08:51:26 PAGE    45

017E 7F00           2882             MOV     R7,#00H
0180 8006           2883             SJMP    ?C0059
                    2884     ; *** sync lost ***
                    2885                             ; SOURCE LINE # 760
0182                2886     ?C0057:
                    2887     ; *** sync lost ***
0182 D0D092AF       2888              DB 0D0H, 0D0H, 092H, 0AFH;
                    2889     ; *** sync lost ***
                    2890                             ; SOURCE LINE # 762
0186 7F46           2891             MOV     R7,#046H
                    2892     ; *** sync lost ***
                    2893                             ; SOURCE LINE # 763
                    2894     ; *** sync lost ***
                    2895                             ; SOURCE LINE # 764
0188                2896     ?C0059:
0188 900013         2897             MOV     DPTR,#013H
018B 020000   F     2898             LJMP    ?C?ADDXBP
                    2899     ; END OF _?OSTCBInit
                    2900     
                    2901     ; *** sync lost ***
                    2902     ; *** sync lost ***
                    2903     ; *** sync lost ***
                    2904     ; *** sync lost ***
                    2905     ; *** sync lost ***
                    2906     ; *** sync lost ***
                    2907     ; *** sync lost ***
                    2908     ; *** sync lost ***
                    2909     ; *** sync lost ***
                    2910     ; *** sync lost ***
                    2911     ; *** sync lost ***
                    2912     ; *** sync lost ***
                    2913     ; *** sync lost ***
                    2914     ; *** sync lost ***
                    2915     ; *** sync lost ***
                    2916     ; *** sync lost ***
                    2917     
----                2918             RSEG  ?PR?_?OSTimeTick?UCOS_II
0000                2919     _?OSTimeTick:
                    2920             USING   0
                    2921                             ; SOURCE LINE # 780
0000 120000   F     2922             LCALL   L?0216
                    2923     ; *** sync lost ***
                    2924     ; *** sync lost ***
                    2925     ; *** sync lost ***
                    2926     ; *** sync lost ***
                    2927     ; *** sync lost ***
                    2928                             ; SOURCE LINE # 785
0003 120000   F     2929             LCALL   _?OSTimeTickHook
                    2930     ; *** sync lost ***
                    2931                             ; SOURCE LINE # 786
0006 900000   F     2932             MOV     DPTR,#OSTCBList
0009 120000   F     2933             LCALL   ?C?PLDXDATA
000C 120000   F     2934             LCALL   L?0182
000F 120000   F     2935             LCALL   ?C?PSTXDATA
0012                2936     ?C0061:
                    2937     ; *** sync lost ***
                    2938                             ; SOURCE LINE # 787
0012 120000   F     2939             LCALL   L?0182
0015 120000   F     2940             LCALL   ?C?PLDXDATA
0018 900012         2941             MOV     DPTR,#012H
001B 120000   F     2942             LCALL   ?C?CLDOPTR
001E 6404           2943             XRL     A,#04H
0020 6063           2944             JZ      ?C0062
                    2945     ; *** sync lost ***
0022 A2AFC2AF       2946              DB 0A2H, 0AFH, 0C2H, 0AFH, 0C0H, 0D0H;
0026 C0D0                    
A51 MACRO ASSEMBLER  UCOS_II                                                              07/03/2002 08:51:26 PAGE    46

                    2947     ; *** sync lost ***
                    2948                             ; SOURCE LINE # 789
0028 90000F         2949             MOV     DPTR,#0FH
002B 120000   F     2950             LCALL   ?C?ILDOPTR
002E 45F0           2951             ORL     A,B
0030 603E           2952             JZ      ?C0063
                    2953     ; *** sync lost ***
                    2954                             ; SOURCE LINE # 790
0032 120000   F     2955             LCALL   L?0182
0035 120000   F     2956             LCALL   L?0290
0038 120000   F     2957             LCALL   L?0251
003B 45F0           2958             ORL     A,B
003D 7031           2959             JNZ     ?C0063
                    2960     ; *** sync lost ***
                    2961                             ; SOURCE LINE # 791
003F 120000   F     2962             LCALL   L?0256
0042 20E31E         2963             JB      ACC.3,?C0065
                    2964     ; *** sync lost ***
                    2965                             ; SOURCE LINE # 792
0045 900000   F     2966             MOV     DPTR,#OSRdyGrp
0048 E0             2967             MOVX    A,@DPTR
0049 FF             2968             MOV     R7,A
                    2969     ; *** sync lost ***
                    2970                             ; SOURCE LINE # 793
004A 120000   F     2971             LCALL   L?0190
004D C083           2972             PUSH    DPH
004F C082           2973             PUSH    DPL
0051 E0             2974             MOVX    A,@DPTR
0052 FF             2975             MOV     R7,A
0053 120000   F     2976             LCALL   L?0182
0056 120000   F     2977             LCALL   L?0233
0059 FE             2978             MOV     R6,A
005A EF             2979             MOV     A,R7
005B 4E             2980             ORL     A,R6
005C D082           2981             POP     DPL
005E D083           2982             POP     DPH
0060 F0             2983             MOVX    @DPTR,A
                    2984     ; *** sync lost ***
                    2985                             ; SOURCE LINE # 794
0061 800D           2986             SJMP    ?C0063
0063                2987     ?C0065:
                    2988     ; *** sync lost ***
                    2989                             ; SOURCE LINE # 795
0063 120000   F     2990             LCALL   L?0182
0066 120000   F     2991             LCALL   L?0290
0069 E4             2992             CLR     A
006A 75F001         2993             MOV     B,#01H
006D 120000   F     2994             LCALL   ?C?ISTOPTR
                    2995     ; *** sync lost ***
                    2996                             ; SOURCE LINE # 796
                    2997     ; *** sync lost ***
                    2998                             ; SOURCE LINE # 797
                    2999     ; *** sync lost ***
                    3000                             ; SOURCE LINE # 798
0070                3001     ?C0063:
                    3002     ; *** sync lost ***
                    3003                             ; SOURCE LINE # 799
0070 120000   F     3004             LCALL   L?0182
0073 120000   F     3005             LCALL   L?0289
0076 120000   F     3006             LCALL   ?C?PLDOPTR
0079 120000   F     3007             LCALL   L?0182
007C 120000   F     3008             LCALL   ?C?PSTXDATA
                    3009     ; *** sync lost ***
007F D0D092AF       3010              DB 0D0H, 0D0H, 092H, 0AFH;
                    3011     ; *** sync lost ***
                    3012                             ; SOURCE LINE # 801
A51 MACRO ASSEMBLER  UCOS_II                                                              07/03/2002 08:51:26 PAGE    47

0083 0100     F     3013             AJMP    ?C0061
0085                3014     ?C0062:
                    3015     ; *** sync lost ***
0085 A2AFC2AF       3016              DB 0A2H, 0AFH, 0C2H, 0AFH, 0C0H, 0D0H;                                    
0089 C0D0                    
                    3017     ; *** sync lost ***
                    3018                             ; SOURCE LINE # 803
008B 900000   F     3019             MOV     DPTR,#OSTime
008E 120000   F     3020             LCALL   ?C?LLDXDATA
0091 EF             3021             MOV     A,R7
0092 2401           3022             ADD     A,#01H
0094 FF             3023             MOV     R7,A
0095 E4             3024             CLR     A
0096 3E             3025             ADDC    A,R6
0097 FE             3026             MOV     R6,A
0098 E4             3027             CLR     A
0099 3D             3028             ADDC    A,R5
009A FD             3029             MOV     R5,A
009B E4             3030             CLR     A
009C 3C             3031             ADDC    A,R4
009D FC             3032             MOV     R4,A
009E 900000   F     3033             MOV     DPTR,#OSTime
00A1 120000   F     3034             LCALL   ?C?LSTXDATA
                    3035     ; *** sync lost ***
00A4 D0D092AF       3036              DB 0D0H, 0D0H, 092H, 0AFH;
                    3037     ; *** sync lost ***
                    3038                             ; SOURCE LINE # 805
00A8 900003         3039             MOV     DPTR,#03H
00AB 020000   F     3040             LJMP    ?C?ADDXBP
                    3041     ; END OF _?OSTimeTick
                    3042     
                    3043     ; *** sync lost ***
                    3044     ; *** sync lost ***
                    3045     ; *** sync lost ***
                    3046     ; *** sync lost ***
                    3047     ; *** sync lost ***
                    3048     ; *** sync lost ***
                    3049     ; *** sync lost ***
                    3050     ; *** sync lost ***
                    3051     ; *** sync lost ***
                    3052     ; *** sync lost ***
                    3053     ; *** sync lost ***
                    3054     ; *** sync lost ***
                    3055     ; *** sync lost ***
                    3056     ; *** sync lost ***
                    3057     ; *** sync lost ***
                    3058     ; *** sync lost ***
                    3059     
----                3060             RSEG  ?PR?_?OSVersion?UCOS_II
0000                3061     _?OSVersion:
                    3062             USING   0
                    3063                             ; SOURCE LINE # 821
                    3064     ; *** sync lost ***
                    3065     ; *** sync lost ***
                    3066                             ; SOURCE LINE # 823
0000 7E00           3067             MOV     R6,#00H
0002 7FC8           3068             MOV     R7,#0C8H
                    3069     ; *** sync lost ***
                    3070                             ; SOURCE LINE # 824
0004                3071     ?C0068:
0004 22             3072             RET     
                    3073     ; END OF _?OSVersion
                    3074     
                    3075     
----                3076             RSEG  ?PR?_?OSMboxAccept?UCOS_II
0000                3077     _?OSMboxAccept:
A51 MACRO ASSEMBLER  UCOS_II                                                              07/03/2002 08:51:26 PAGE    48

                    3078             USING   0
                    3079                             ; SOURCE LINE # 37
0000 120000   F     3080             LCALL   L?0185
0003 120000   F     3081             LCALL   L?0216
0006 A2AFC2AF       3082              DB 0A2H, 0AFH, 0C2H, 0AFH, 0C0H, 0D0H;
000A C0D0                    
                    3083                             ; SOURCE LINE # 43
000C 120000   F     3084             LCALL   L?0186
000F 120000   F     3085             LCALL   L?0228
0012 6401           3086             XRL     A,#01H
0014 6009           3087             JZ      ?C0069
0016 D0D092AF       3088              DB 0D0H, 0D0H, 092H, 0AFH;
                    3089                             ; SOURCE LINE # 45
001A 120000   F     3090             LCALL   L?0203
001D 8027           3091             SJMP    ?C0070
                    3092                             ; SOURCE LINE # 46
001F                3093     ?C0069:
                    3094                             ; SOURCE LINE # 47
001F 120000   F     3095             LCALL   L?0186
0022 120000   F     3096             LCALL   ?C?PLDPTR
                    3097                             ; SOURCE LINE # 48
0025 120000   F     3098             LCALL   L?0180
0028 120000   F     3099             LCALL   L?0218
002B 600F           3100             JZ      ?C0071
                    3101                             ; SOURCE LINE # 49
002D 120000   F     3102             LCALL   L?0203
0030 C003           3103             PUSH    AR3
0032 C002           3104             PUSH    AR2
0034 C001           3105             PUSH    AR1
0036 120000   F     3106             LCALL   L?0187
0039 120000   F     3107             LCALL   ?C?PSTPTR
                    3108                             ; SOURCE LINE # 50
003C                3109     ?C0071:
003C D0D092AF       3110              DB 0D0H, 0D0H, 092H, 0AFH;
                    3111                             ; SOURCE LINE # 52
0040 120000   F     3112             LCALL   L?0182
0043 120000   F     3113             LCALL   ?C?PLDXDATA
                    3114                             ; SOURCE LINE # 53
0046                3115     ?C0070:
0046 900006         3116             MOV     DPTR,#06H
0049 020000   F     3117             LJMP    ?C?ADDXBP
                    3118     ; END OF _?OSMboxAccept
                    3119     
                    3120     
----                3121             RSEG  ?PR?_?OSMboxCreate?UCOS_II
0000                3122     _?OSMboxCreate:
                    3123             USING   0
                    3124                             ; SOURCE LINE # 71
0000 120000   F     3125             LCALL   L?0185
0003 120000   F     3126             LCALL   L?0216
0006 A2AFC2AF       3127              DB 0A2H, 0AFH, 0C2H, 0AFH, 0C0H, 0D0H;
000A C0D0                    
                    3128                             ; SOURCE LINE # 77
000C 900000   F     3129             MOV     DPTR,#OSEventFreeList
000F 120000   F     3130             LCALL   ?C?PLDXDATA
0012 120000   F     3131             LCALL   L?0182
                    3132                             ; SOURCE LINE # 78
0015 120000   F     3133             LCALL   L?0217
0018 6003           3134             JZ      ?C0072
                    3135                             ; SOURCE LINE # 79
001A 120000   F     3136             LCALL   L?0248
                    3137                             ; SOURCE LINE # 80
001D                3138     ?C0072:
001D D0D092AF       3139              DB 0D0H, 0D0H, 092H, 0AFH;
                    3140                             ; SOURCE LINE # 82
0021 120000   F     3141             LCALL   L?0182
A51 MACRO ASSEMBLER  UCOS_II                                                              07/03/2002 08:51:26 PAGE    49

0024 120000   F     3142             LCALL   L?0218
0027 6026           3143             JZ      ?C0073
                    3144                             ; SOURCE LINE # 83
0029 120000   F     3145             LCALL   L?0182
002C 120000   F     3146             LCALL   L?0273
002F 7401           3147             MOV     A,#01H
0031 120000   F     3148             LCALL   ?C?CSTOPTR
                    3149                             ; SOURCE LINE # 84
0034 120000   F     3150             LCALL   L?0187
0037 C003           3151             PUSH    AR3
0039 C002           3152             PUSH    AR2
003B C001           3153             PUSH    AR1
003D 120000   F     3154             LCALL   L?0182
0040 120000   F     3155             LCALL   ?C?PLDXDATA
0043 120000   F     3156             LCALL   ?C?PSTPTR
                    3157                             ; SOURCE LINE # 85
0046 120000   F     3158             LCALL   L?0182
0049 120000   F     3159             LCALL   ?C?PLDXDATA
004C 120000   F     3160             LCALL   _?OSEventWaitListInit
                    3161                             ; SOURCE LINE # 86
004F                3162     ?C0073:
                    3163                             ; SOURCE LINE # 87
004F 120000   F     3164             LCALL   L?0182
0052 120000   F     3165             LCALL   ?C?PLDXDATA
                    3166                             ; SOURCE LINE # 88
0055                3167     ?C0074:
0055 900006         3168             MOV     DPTR,#06H
0058 020000   F     3169             LJMP    ?C?ADDXBP
                    3170     ; END OF _?OSMboxCreate
                    3171     
                    3172     
----                3173             RSEG  ?PR?_?OSMboxPend?UCOS_II
0000                3174     _?OSMboxPend:
                    3175             USING   0
                    3176                             ; SOURCE LINE # 118
0000 120000   F     3177             LCALL   L?0225
0003 EC             3178             MOV     A,R4
0004 F0             3179             MOVX    @DPTR,A
0005 A3             3180             INC     DPTR
0006 ED             3181             MOV     A,R5
0007 F0             3182             MOVX    @DPTR,A
0008 120000   F     3183             LCALL   L?0185
000B 120000   F     3184             LCALL   L?0216
000E A2AFC2AF       3185              DB 0A2H, 0AFH, 0C2H, 0AFH, 0C0H, 0D0H;
0012 C0D0                    
                    3186                             ; SOURCE LINE # 124
0014 120000   F     3187             LCALL   L?0187
0017 120000   F     3188             LCALL   L?0228
001A 6401           3189             XRL     A,#01H
001C 6014           3190             JZ      ?C0075
001E D0D092AF       3191              DB 0D0H, 0D0H, 092H, 0AFH;
                    3192                             ; SOURCE LINE # 126
0022 900008         3193             MOV     DPTR,#08H
0025 120000   F     3194             LCALL   L?0188
0028 7401           3195             MOV     A,#01H
002A 120000   F     3196             LCALL   ?C?CSTPTR
                    3197                             ; SOURCE LINE # 127
002D 120000   F     3198             LCALL   L?0203
0030 0100     F     3199             AJMP    ?C0076
                    3200                             ; SOURCE LINE # 128
0032                3201     ?C0075:
                    3202                             ; SOURCE LINE # 129
0032 120000   F     3203             LCALL   L?0187
0035 120000   F     3204             LCALL   ?C?PLDPTR
                    3205                             ; SOURCE LINE # 130
0038 120000   F     3206             LCALL   L?0180
A51 MACRO ASSEMBLER  UCOS_II                                                              07/03/2002 08:51:26 PAGE    50

003B 120000   F     3207             LCALL   L?0218
003E 6015           3208             JZ      ?C0077
                    3209                             ; SOURCE LINE # 131
0040 120000   F     3210             LCALL   L?0203
0043 C003           3211             PUSH    AR3
0045 C002           3212             PUSH    AR2
0047 C001           3213             PUSH    AR1
0049 120000   F     3214             LCALL   L?0187
004C 120000   F     3215             LCALL   ?C?PSTPTR
004F D0D092AF       3216              DB 0D0H, 0D0H, 092H, 0AFH;
                    3217                             ; SOURCE LINE # 133
                    3218                             ; SOURCE LINE # 134
0053 0100     F     3219             AJMP    ?C0170
0055                3220     ?C0077:
0055 900000   F     3221             MOV     DPTR,#OSIntNesting
0058 E0             3222             MOVX    A,@DPTR
0059 D3             3223             SETB    C
005A 9400           3224             SUBB    A,#00H
005C 400E           3225             JC      ?C0079
005E D0D092AF       3226              DB 0D0H, 0D0H, 092H, 0AFH;                            
                    3227                             ; SOURCE LINE # 136
0062 900008         3228             MOV     DPTR,#08H
0065 120000   F     3229             LCALL   L?0188
0068 7402           3230             MOV     A,#02H
                    3231                             ; SOURCE LINE # 137
006A 0100     F     3232             AJMP    ?C0173
006C                3233     ?C0079:
                    3234                             ; SOURCE LINE # 138
006C 120000   F     3235             LCALL   L?0200
006F 120000   F     3236             LCALL   L?0241
0072 4402           3237             ORL     A,#02H
0074 120000   F     3238             LCALL   ?C?CSTPTR
                    3239                             ; SOURCE LINE # 139
0077 120000   F     3240             LCALL   L?0246
007A E0             3241             MOVX    A,@DPTR
007B FE             3242             MOV     R6,A
007C A3             3243             INC     DPTR
007D E0             3244             MOVX    A,@DPTR
007E 120000   F     3245             LCALL   L?0199
0081 EE             3246             MOV     A,R6
0082 8FF0           3247             MOV     B,R7
0084 120000   F     3248             LCALL   L?0238
                    3249                             ; SOURCE LINE # 140
0087 120000   F     3250             LCALL   L?0187
008A 120000   F     3251             LCALL   _?OSEventTaskWait
008D D0D092AF       3252              DB 0D0H, 0D0H, 092H, 0AFH;
                    3253                             ; SOURCE LINE # 142
0091 120000   F     3254             LCALL   _?OSSched
0094 A2AFC2AF       3255              DB 0A2H, 0AFH, 0C2H, 0AFH, 0C0H, 0D0H;
0098 C0D0                    
                    3256                             ; SOURCE LINE # 144
009A 120000   F     3257             LCALL   L?0200
009D 90000C         3258             MOV     DPTR,#0CH
00A0 120000   F     3259             LCALL   ?C?PLDOPTR
00A3 120000   F     3260             LCALL   L?0182
00A6 120000   F     3261             LCALL   ?C?PSTXDATA
00A9 E9             3262             MOV     A,R1
00AA 4A             3263             ORL     A,R2
00AB 4B             3264             ORL     A,R3
00AC 6034           3265             JZ      ?C0081
                    3266                             ; SOURCE LINE # 145
00AE 120000   F     3267             LCALL   L?0203
00B1 C003           3268             PUSH    AR3
00B3 C002           3269             PUSH    AR2
00B5 C001           3270             PUSH    AR1
00B7 120000   F     3271             LCALL   L?0200
A51 MACRO ASSEMBLER  UCOS_II                                                              07/03/2002 08:51:26 PAGE    51

00BA 90000C         3272             MOV     DPTR,#0CH
00BD 120000   F     3273             LCALL   ?C?PSTOPTR
                    3274                             ; SOURCE LINE # 146
00C0 120000   F     3275             LCALL   L?0200
                    3276                             ; SOURCE LINE # 147
00C3 120000   F     3277             LCALL   L?0201
00C6 C003           3278             PUSH    AR3
00C8 C002           3279             PUSH    AR2
00CA C001           3280             PUSH    AR1
00CC 120000   F     3281             LCALL   L?0200
00CF 900009         3282             MOV     DPTR,#09H
00D2 120000   F     3283             LCALL   ?C?PSTOPTR
00D5 D0D092AF       3284              DB 0D0H, 0D0H, 092H, 0AFH;
                    3285                             ; SOURCE LINE # 149
00D9                3286     ?C0170:
00D9 900008         3287             MOV     DPTR,#08H
00DC 120000   F     3288             LCALL   L?0188
00DF E4             3289             CLR     A
00E0                3290     ?C0171:
                    3291                             ; SOURCE LINE # 150
00E0 0100     F     3292             AJMP    ?C0173
00E2                3293     ?C0081:
00E2 120000   F     3294             LCALL   L?0200
00E5 120000   F     3295             LCALL   L?0257
00E8 30E11D         3296             JNB     ACC.1,?C0083
                    3297                             ; SOURCE LINE # 151
00EB 120000   F     3298             LCALL   L?0187
00EE 120000   F     3299             LCALL   _?OSEventTO
00F1 D0D092AF       3300              DB 0D0H, 0D0H, 092H, 0AFH;
                    3301                             ; SOURCE LINE # 153
00F5 120000   F     3302             LCALL   L?0203
00F8 120000   F     3303             LCALL   L?0182
00FB 120000   F     3304             LCALL   ?C?PSTXDATA
                    3305                             ; SOURCE LINE # 154
00FE 900008         3306             MOV     DPTR,#08H
0101 120000   F     3307             LCALL   L?0188
0104 740A           3308             MOV     A,#0AH
0106                3309     ?C0172:
                    3310                             ; SOURCE LINE # 155
0106 8038           3311             SJMP    ?C0173
0108                3312     ?C0083:
                    3313                             ; SOURCE LINE # 156
0108 120000   F     3314             LCALL   L?0187
010B 120000   F     3315             LCALL   ?C?PLDPTR
010E 120000   F     3316             LCALL   L?0182
0111 120000   F     3317             LCALL   ?C?PSTXDATA
                    3318                             ; SOURCE LINE # 157
0114 120000   F     3319             LCALL   L?0203
0117 C003           3320             PUSH    AR3
0119 C002           3321             PUSH    AR2
011B C001           3322             PUSH    AR1
011D 120000   F     3323             LCALL   L?0187
0120 120000   F     3324             LCALL   ?C?PSTPTR
                    3325                             ; SOURCE LINE # 158
0123 120000   F     3326             LCALL   L?0203
0126 C003           3327             PUSH    AR3
0128 C002           3328             PUSH    AR2
012A C001           3329             PUSH    AR1
012C 120000   F     3330             LCALL   L?0200
012F 900009         3331             MOV     DPTR,#09H
0132 120000   F     3332             LCALL   ?C?PSTOPTR
0135 D0D092AF       3333              DB 0D0H, 0D0H, 092H, 0AFH;
                    3334                             ; SOURCE LINE # 160
0139 900008         3335             MOV     DPTR,#08H
013C 120000   F     3336             LCALL   L?0188
013F E4             3337             CLR     A
A51 MACRO ASSEMBLER  UCOS_II                                                              07/03/2002 08:51:26 PAGE    52

0140                3338     ?C0173:
0140 120000   F     3339             LCALL   ?C?CSTPTR
                    3340                             ; SOURCE LINE # 161
                    3341                             ; SOURCE LINE # 162
0143                3342     ?C0078:
                    3343                             ; SOURCE LINE # 163
0143 120000   F     3344             LCALL   L?0182
0146 120000   F     3345             LCALL   ?C?PLDXDATA
                    3346                             ; SOURCE LINE # 164
0149                3347     ?C0076:
0149 90000B         3348             MOV     DPTR,#0BH
014C 020000   F     3349             LJMP    ?C?ADDXBP
                    3350     ; END OF _?OSMboxPend
                    3351     
                    3352     
----                3353             RSEG  ?PR?_?OSMboxPost?UCOS_II
0000                3354     _?OSMboxPost:
                    3355             USING   0
                    3356                             ; SOURCE LINE # 184
0000 120000   F     3357             LCALL   L?0185
0003 A2AFC2AF       3358              DB 0A2H, 0AFH, 0C2H, 0AFH, 0C0H, 0D0H;
0007 C0D0                    
                    3359                             ; SOURCE LINE # 187
0009 120000   F     3360             LCALL   L?0182
000C 120000   F     3361             LCALL   L?0226
000F 6401           3362             XRL     A,#01H
0011 6008           3363             JZ      ?C0085
0013 D0D092AF       3364              DB 0D0H, 0D0H, 092H, 0AFH;
                    3365                             ; SOURCE LINE # 189
0017 7F01           3366             MOV     R7,#01H
0019 8056           3367             SJMP    ?C0086
                    3368                             ; SOURCE LINE # 190
001B                3369     ?C0085:
                    3370                             ; SOURCE LINE # 191
001B 120000   F     3371             LCALL   L?0252
001E 6023           3372             JZ      ?C0087
                    3373                             ; SOURCE LINE # 192
0020 120000   F     3374             LCALL   L?0230
0023 7402           3375             MOV     A,#02H
0025 F0             3376             MOVX    @DPTR,A
0026 900004         3377             MOV     DPTR,#04H
0029 120000   F     3378             LCALL   L?0188
002C 120000   F     3379             LCALL   L?0185
002F 900004         3380             MOV     DPTR,#04H
0032 120000   F     3381             LCALL   L?0188
0035 120000   F     3382             LCALL   _?OSEventTaskRdy
0038 D0D092AF       3383              DB 0D0H, 0D0H, 092H, 0AFH;
                    3384                             ; SOURCE LINE # 194
003C 120000   F     3385             LCALL   _?OSSched
                    3386                             ; SOURCE LINE # 195
003F 7F00           3387             MOV     R7,#00H
0041 802E           3388             SJMP    ?C0086
                    3389                             ; SOURCE LINE # 196
0043                3390     ?C0087:
                    3391                             ; SOURCE LINE # 197
0043 120000   F     3392             LCALL   L?0182
0046 120000   F     3393             LCALL   ?C?PLDXDATA
0049 120000   F     3394             LCALL   ?C?PLDPTR
004C E9             3395             MOV     A,R1
004D 4A             3396             ORL     A,R2
004E 4B             3397             ORL     A,R3
004F 6008           3398             JZ      ?C0089
0051 D0D092AF       3399              DB 0D0H, 0D0H, 092H, 0AFH;
                    3400                             ; SOURCE LINE # 199
0055 7F14           3401             MOV     R7,#014H
0057 8018           3402             SJMP    ?C0086
A51 MACRO ASSEMBLER  UCOS_II                                                              07/03/2002 08:51:26 PAGE    53

                    3403                             ; SOURCE LINE # 200
0059                3404     ?C0089:
                    3405                             ; SOURCE LINE # 201
0059 120000   F     3406             LCALL   L?0187
005C C003           3407             PUSH    AR3
005E C002           3408             PUSH    AR2
0060 C001           3409             PUSH    AR1
0062 120000   F     3410             LCALL   L?0182
0065 120000   F     3411             LCALL   ?C?PLDXDATA
0068 120000   F     3412             LCALL   ?C?PSTPTR
006B D0D092AF       3413              DB 0D0H, 0D0H, 092H, 0AFH;
                    3414                             ; SOURCE LINE # 203
006F 7F00           3415             MOV     R7,#00H
                    3416                             ; SOURCE LINE # 204
                    3417                             ; SOURCE LINE # 205
                    3418                             ; SOURCE LINE # 206
0071                3419     ?C0086:
0071 900006         3420             MOV     DPTR,#06H
0074 020000   F     3421             LJMP    ?C?ADDXBP
                    3422     ; END OF _?OSMboxPost
                    3423     
                    3424     
----                3425             RSEG  ?PR?_?OSMboxQuery?UCOS_II
0000                3426     _?OSMboxQuery:
                    3427             USING   0
                    3428                             ; SOURCE LINE # 224
0000 120000   F     3429             LCALL   L?0185
0003 90FFF9         3430             MOV     DPTR,#0FFF9H
0006 120000   F     3431             LCALL   ?C?ADDXBP
0009 A2AFC2AF       3432              DB 0A2H, 0AFH, 0C2H, 0AFH, 0C0H, 0D0H;
000D C0D0                    
                    3433                             ; SOURCE LINE # 232
000F 900007         3434             MOV     DPTR,#07H
0012 120000   F     3435             LCALL   L?0188
0015 120000   F     3436             LCALL   L?0228
0018 6401           3437             XRL     A,#01H
001A 6008           3438             JZ      ?C0091
001C D0D092AF       3439              DB 0D0H, 0D0H, 092H, 0AFH;
                    3440                             ; SOURCE LINE # 234
0020 7F01           3441             MOV     R7,#01H
0022 0100     F     3442             AJMP    ?C0092
                    3443                             ; SOURCE LINE # 235
0024                3444     ?C0091:
                    3445                             ; SOURCE LINE # 236
0024 120000   F     3446             LCALL   L?0253
0027 FF             3447             MOV     R7,A
0028 90000A         3448             MOV     DPTR,#0AH
002B 120000   F     3449             LCALL   L?0188
002E 900004         3450             MOV     DPTR,#04H
0031 EF             3451             MOV     A,R7
0032 120000   F     3452             LCALL   ?C?CSTOPTR
                    3453                             ; SOURCE LINE # 237
0035 900007         3454             MOV     DPTR,#07H
0038 120000   F     3455             LCALL   L?0188
003B 120000   F     3456             LCALL   L?0223
003E 120000   F     3457             LCALL   L?0182
0041 A3             3458             INC     DPTR
0042 120000   F     3459             LCALL   ?C?PSTXDATA
                    3460                             ; SOURCE LINE # 238
0045 90000A         3461             MOV     DPTR,#0AH
0048 120000   F     3462             LCALL   L?0188
004B 120000   F     3463             LCALL   L?0223
004E 120000   F     3464             LCALL   L?0212
                    3465                             ; SOURCE LINE # 239
0051 120000   F     3466             LCALL   L?0181
0054 E4             3467             CLR     A
A51 MACRO ASSEMBLER  UCOS_II                                                              07/03/2002 08:51:26 PAGE    54

0055 F0             3468             MOVX    @DPTR,A
0056                3469     ?C0093:
0056 120000   F     3470             LCALL   L?0182
0059 E0             3471             MOVX    A,@DPTR
005A C3             3472             CLR     C
005B 9401           3473             SUBB    A,#01H
005D 500E           3474             JNC     ?C0094
                    3475                             ; SOURCE LINE # 240
005F 120000   F     3476             LCALL   L?0210
0062 120000   F     3477             LCALL   L?0276
                    3478                             ; SOURCE LINE # 241
0065 120000   F     3479             LCALL   L?0182
0068 E0             3480             MOVX    A,@DPTR
0069 04             3481             INC     A
006A F0             3482             MOVX    @DPTR,A
006B 80E9           3483             SJMP    ?C0093
006D                3484     ?C0094:
                    3485                             ; SOURCE LINE # 242
006D 900007         3486             MOV     DPTR,#07H
0070 120000   F     3487             LCALL   L?0188
0073 120000   F     3488             LCALL   ?C?PLDPTR
0076 C003           3489             PUSH    AR3
0078 C002           3490             PUSH    AR2
007A C001           3491             PUSH    AR1
007C 90000A         3492             MOV     DPTR,#0AH
007F 120000   F     3493             LCALL   L?0188
0082 120000   F     3494             LCALL   ?C?PSTPTR
0085 D0D092AF       3495              DB 0D0H, 0D0H, 092H, 0AFH;
                    3496                             ; SOURCE LINE # 244
0089 7F00           3497             MOV     R7,#00H
                    3498                             ; SOURCE LINE # 245
008B                3499     ?C0092:
008B 90000D         3500             MOV     DPTR,#0DH
008E 020000   F     3501             LJMP    ?C?ADDXBP
                    3502     ; END OF _?OSMboxQuery
                    3503     
                    3504     
----                3505             RSEG  ?PR?_?OSSemAccept?UCOS_II
0000                3506     _?OSSemAccept:
                    3507             USING   0
                    3508                             ; SOURCE LINE # 39
0000 120000   F     3509             LCALL   L?0185
0003 120000   F     3510             LCALL   L?0225
0006 A2AFC2AF       3511              DB 0A2H, 0AFH, 0C2H, 0AFH, 0C0H, 0D0H;
000A C0D0                    
                    3512                             ; SOURCE LINE # 45
000C 120000   F     3513             LCALL   L?0182
000F A3             3514             INC     DPTR
0010 A3             3515             INC     DPTR
0011 120000   F     3516             LCALL   L?0226
0014 6403           3517             XRL     A,#03H
0016 600A           3518             JZ      ?C0096
0018 D0D092AF       3519              DB 0D0H, 0D0H, 092H, 0AFH;
                    3520                             ; SOURCE LINE # 47
001C 7E00           3521             MOV     R6,#00H
001E 7F00           3522             MOV     R7,#00H
0020 8021           3523             SJMP    ?C0097
                    3524                             ; SOURCE LINE # 48
0022                3525     ?C0096:
                    3526                             ; SOURCE LINE # 49
0022 120000   F     3527             LCALL   L?0263
0025 FF             3528             MOV     R7,A
0026 120000   F     3529             LCALL   L?0182
0029 E5F0           3530             MOV     A,B
002B F0             3531             MOVX    @DPTR,A
002C A3             3532             INC     DPTR
A51 MACRO ASSEMBLER  UCOS_II                                                              07/03/2002 08:51:26 PAGE    55

002D EF             3533             MOV     A,R7
002E F0             3534             MOVX    @DPTR,A
                    3535                             ; SOURCE LINE # 50
002F 120000   F     3536             LCALL   L?0182
0032 E0             3537             MOVX    A,@DPTR
0033 FE             3538             MOV     R6,A
0034 A3             3539             INC     DPTR
0035 E0             3540             MOVX    A,@DPTR
0036 FF             3541             MOV     R7,A
0037 120000   F     3542             LCALL   L?0268
003A 4003           3543             JC      ?C0098
                    3544                             ; SOURCE LINE # 51
003C 120000   F     3545             LCALL   L?0250
                    3546                             ; SOURCE LINE # 52
003F                3547     ?C0098:
003F D0D092AF       3548              DB 0D0H, 0D0H, 092H, 0AFH;
                    3549                             ; SOURCE LINE # 54
                    3550                             ; SOURCE LINE # 55
0043                3551     ?C0097:
0043 900005         3552             MOV     DPTR,#05H
0046 020000   F     3553             LJMP    ?C?ADDXBP
                    3554     ; END OF _?OSSemAccept
                    3555     
                    3556     
----                3557             RSEG  ?PR?_?OSSemCreate?UCOS_II
0000                3558     _?OSSemCreate:
                    3559             USING   0
                    3560                             ; SOURCE LINE # 75
0000 120000   F     3561             LCALL   L?0225
0003 EE             3562             MOV     A,R6
0004 F0             3563             MOVX    @DPTR,A
0005 A3             3564             INC     DPTR
0006 120000   F     3565             LCALL   L?0215
0009 A2AFC2AF       3566              DB 0A2H, 0AFH, 0C2H, 0AFH, 0C0H, 0D0H;
000D C0D0                    
                    3567                             ; SOURCE LINE # 81
000F 900000   F     3568             MOV     DPTR,#OSEventFreeList
0012 120000   F     3569             LCALL   ?C?PLDXDATA
0015 120000   F     3570             LCALL   L?0182
                    3571                             ; SOURCE LINE # 82
0018 120000   F     3572             LCALL   L?0217
001B 6003           3573             JZ      ?C0099
                    3574                             ; SOURCE LINE # 83
001D 120000   F     3575             LCALL   L?0248
                    3576                             ; SOURCE LINE # 84
0020                3577     ?C0099:
0020 D0D092AF       3578              DB 0D0H, 0D0H, 092H, 0AFH;
                    3579                             ; SOURCE LINE # 86
0024 120000   F     3580             LCALL   L?0182
0027 120000   F     3581             LCALL   L?0218
002A 601E           3582             JZ      ?C0100
                    3583                             ; SOURCE LINE # 87
002C 120000   F     3584             LCALL   L?0182
002F 120000   F     3585             LCALL   L?0273
0032 7403           3586             MOV     A,#03H
0034 120000   F     3587             LCALL   ?C?CSTOPTR
                    3588                             ; SOURCE LINE # 88
0037 120000   F     3589             LCALL   L?0220
003A E0             3590             MOVX    A,@DPTR
003B FF             3591             MOV     R7,A
003C A3             3592             INC     DPTR
003D E0             3593             MOVX    A,@DPTR
003E 900004         3594             MOV     DPTR,#04H
0041 CF             3595             XCH     A,R7
0042 8FF0           3596             MOV     B,R7
0044 120000   F     3597             LCALL   ?C?ISTOPTR
A51 MACRO ASSEMBLER  UCOS_II                                                              07/03/2002 08:51:26 PAGE    56

                    3598                             ; SOURCE LINE # 89
0047 120000   F     3599             LCALL   _?OSEventWaitListInit
                    3600                             ; SOURCE LINE # 90
004A                3601     ?C0100:
                    3602                             ; SOURCE LINE # 91
004A 120000   F     3603             LCALL   L?0182
004D 120000   F     3604             LCALL   ?C?PLDXDATA
                    3605                             ; SOURCE LINE # 92
0050                3606     ?C0101:
0050 900005         3607             MOV     DPTR,#05H
0053 020000   F     3608             LJMP    ?C?ADDXBP
                    3609     ; END OF _?OSSemCreate
                    3610     
                    3611     
----                3612             RSEG  ?PR?_?OSSemPend?UCOS_II
0000                3613     _?OSSemPend:
                    3614             USING   0
                    3615                             ; SOURCE LINE # 124
0000 120000   F     3616             LCALL   L?0225
0003 EC             3617             MOV     A,R4
0004 F0             3618             MOVX    @DPTR,A
0005 A3             3619             INC     DPTR
0006 ED             3620             MOV     A,R5
0007 F0             3621             MOVX    @DPTR,A
0008 120000   F     3622             LCALL   L?0185
000B A2AFC2AF       3623              DB 0A2H, 0AFH, 0C2H, 0AFH, 0C0H, 0D0H;
000F C0D0                    
                    3624                             ; SOURCE LINE # 127
0011 120000   F     3625             LCALL   L?0182
0014 120000   F     3626             LCALL   L?0227
0017 6403           3627             XRL     A,#03H
0019 600F           3628             JZ      ?C0102
001B D0D092AF       3629              DB 0D0H, 0D0H, 092H, 0AFH;
                    3630                             ; SOURCE LINE # 129
001F 900005         3631             MOV     DPTR,#05H
0022 120000   F     3632             LCALL   L?0188
0025 7401           3633             MOV     A,#01H
0027 120000   F     3634             LCALL   ?C?CSTPTR
                    3635                             ; SOURCE LINE # 130
002A                3636     ?C0102:
                    3637                             ; SOURCE LINE # 131
002A 120000   F     3638             LCALL   L?0182
002D 120000   F     3639             LCALL   L?0262
0030 D3             3640             SETB    C
0031 9400           3641             SUBB    A,#00H
0033 E5F0           3642             MOV     A,B
0035 9400           3643             SUBB    A,#00H
0037 4009           3644             JC      ?C0103
                    3645                             ; SOURCE LINE # 132
0039 120000   F     3646             LCALL   L?0250
003C D0D092AF       3647              DB 0D0H, 0D0H, 092H, 0AFH;
                    3648                             ; SOURCE LINE # 134
                    3649                             ; SOURCE LINE # 135
0040 0100     F     3650             AJMP    ?C0174
0042                3651     ?C0103:
0042 900000   F     3652             MOV     DPTR,#OSIntNesting
0045 E0             3653             MOVX    A,@DPTR
0046 D3             3654             SETB    C
0047 9400           3655             SUBB    A,#00H
0049 400E           3656             JC      ?C0105
004B D0D092AF       3657              DB 0D0H, 0D0H, 092H, 0AFH;                            
                    3658                             ; SOURCE LINE # 137
004F 900005         3659             MOV     DPTR,#05H
0052 120000   F     3660             LCALL   L?0188
0055 7402           3661             MOV     A,#02H
                    3662                             ; SOURCE LINE # 138
A51 MACRO ASSEMBLER  UCOS_II                                                              07/03/2002 08:51:26 PAGE    57

0057 0100     F     3663             AJMP    ?C0176
0059                3664     ?C0105:
                    3665                             ; SOURCE LINE # 139
0059 120000   F     3666             LCALL   L?0200
005C 120000   F     3667             LCALL   L?0242
005F 4401           3668             ORL     A,#01H
0061 120000   F     3669             LCALL   ?C?CSTPTR
                    3670                             ; SOURCE LINE # 140
0064 120000   F     3671             LCALL   L?0220
0067 E0             3672             MOVX    A,@DPTR
0068 FE             3673             MOV     R6,A
0069 A3             3674             INC     DPTR
006A E0             3675             MOVX    A,@DPTR
006B 120000   F     3676             LCALL   L?0199
006E 90000F         3677             MOV     DPTR,#0FH
0071 EE             3678             MOV     A,R6
0072 8FF0           3679             MOV     B,R7
0074 120000   F     3680             LCALL   ?C?ISTOPTR
                    3681                             ; SOURCE LINE # 141
0077 120000   F     3682             LCALL   L?0182
007A 120000   F     3683             LCALL   ?C?PLDXDATA
007D 120000   F     3684             LCALL   _?OSEventTaskWait
0080 D0D092AF       3685              DB 0D0H, 0D0H, 092H, 0AFH;
                    3686                             ; SOURCE LINE # 143
0084 120000   F     3687             LCALL   _?OSSched
0087 A2AFC2AF       3688              DB 0A2H, 0AFH, 0C2H, 0AFH, 0C0H, 0D0H;
008B C0D0                    
                    3689                             ; SOURCE LINE # 145
008D 120000   F     3690             LCALL   L?0200
0090 120000   F     3691             LCALL   L?0257
0093 30E017         3692             JNB     ACC.0,?C0107
                    3693                             ; SOURCE LINE # 146
0096 120000   F     3694             LCALL   L?0182
0099 120000   F     3695             LCALL   ?C?PLDXDATA
009C 120000   F     3696             LCALL   _?OSEventTO
009F D0D092AF       3697              DB 0D0H, 0D0H, 092H, 0AFH;
                    3698                             ; SOURCE LINE # 148
00A3 900005         3699             MOV     DPTR,#05H
00A6 120000   F     3700             LCALL   L?0188
00A9 740A           3701             MOV     A,#0AH
00AB                3702     ?C0175:
                    3703                             ; SOURCE LINE # 149
00AB 801D           3704             SJMP    ?C0176
00AD                3705     ?C0107:
                    3706                             ; SOURCE LINE # 150
00AD 120000   F     3707             LCALL   L?0203
00B0 C003           3708             PUSH    AR3
00B2 C002           3709             PUSH    AR2
00B4 C001           3710             PUSH    AR1
00B6 120000   F     3711             LCALL   L?0200
00B9 900009         3712             MOV     DPTR,#09H
00BC 120000   F     3713             LCALL   ?C?PSTOPTR
00BF D0D092AF       3714              DB 0D0H, 0D0H, 092H, 0AFH;
                    3715                             ; SOURCE LINE # 152
00C3                3716     ?C0174:
00C3 900005         3717             MOV     DPTR,#05H
00C6 120000   F     3718             LCALL   L?0188
00C9 E4             3719             CLR     A
00CA                3720     ?C0176:
00CA 120000   F     3721             LCALL   ?C?CSTPTR
                    3722                             ; SOURCE LINE # 153
                    3723                             ; SOURCE LINE # 154
                    3724                             ; SOURCE LINE # 155
00CD                3725     ?C0109:
00CD 900008         3726             MOV     DPTR,#08H
00D0 020000   F     3727             LJMP    ?C?ADDXBP
A51 MACRO ASSEMBLER  UCOS_II                                                              07/03/2002 08:51:26 PAGE    58

                    3728     ; END OF _?OSSemPend
                    3729     
                    3730     
----                3731             RSEG  ?PR?_?OSSemPost?UCOS_II
0000                3732     _?OSSemPost:
                    3733             USING   0
                    3734                             ; SOURCE LINE # 174
0000 120000   F     3735             LCALL   L?0185
0003 A2AFC2AF       3736              DB 0A2H, 0AFH, 0C2H, 0AFH, 0C0H, 0D0H;
0007 C0D0                    
                    3737                             ; SOURCE LINE # 177
0009 120000   F     3738             LCALL   L?0182
000C 120000   F     3739             LCALL   L?0227
000F 6403           3740             XRL     A,#03H
0011 6008           3741             JZ      ?C0110
0013 D0D092AF       3742              DB 0D0H, 0D0H, 092H, 0AFH;
                    3743                             ; SOURCE LINE # 179
0017 7F01           3744             MOV     R7,#01H
0019 8058           3745             SJMP    ?C0111
                    3746                             ; SOURCE LINE # 180
001B                3747     ?C0110:
                    3748                             ; SOURCE LINE # 181
001B 120000   F     3749             LCALL   L?0253
001E 601D           3750             JZ      ?C0112
                    3751                             ; SOURCE LINE # 182
0020 120000   F     3752             LCALL   L?0230
0023 7401           3753             MOV     A,#01H
0025 F0             3754             MOVX    @DPTR,A
0026 120000   F     3755             LCALL   L?0184
0029 900004         3756             MOV     DPTR,#04H
002C 120000   F     3757             LCALL   L?0188
002F 120000   F     3758             LCALL   _?OSEventTaskRdy
0032 D0D092AF       3759              DB 0D0H, 0D0H, 092H, 0AFH;
                    3760                             ; SOURCE LINE # 184
0036 120000   F     3761             LCALL   _?OSSched
                    3762                             ; SOURCE LINE # 185
0039 7F00           3763             MOV     R7,#00H
003B 8036           3764             SJMP    ?C0111
                    3765                             ; SOURCE LINE # 186
003D                3766     ?C0112:
                    3767                             ; SOURCE LINE # 187
003D 120000   F     3768             LCALL   L?0182
0040 120000   F     3769             LCALL   L?0262
0043 FF             3770             MOV     R7,A
0044 AEF0           3771             MOV     R6,B
0046 E4             3772             CLR     A
0047 FC             3773             MOV     R4,A
0048 FD             3774             MOV     R5,A
0049 7BFF           3775             MOV     R3,#0FFH
004B 7AFF           3776             MOV     R2,#0FFH
004D F9             3777             MOV     R1,A
004E F8             3778             MOV     R0,A
004F D3             3779             SETB    C
0050 120000   F     3780             LCALL   ?C?SLCMP
0053 4018           3781             JC      ?C0114
                    3782                             ; SOURCE LINE # 188
0055 120000   F     3783             LCALL   L?0182
0058 120000   F     3784             LCALL   ?C?PLDXDATA
005B 900004         3785             MOV     DPTR,#04H
005E E4             3786             CLR     A
005F 75F001         3787             MOV     B,#01H
0062 120000   F     3788             LCALL   ?C?IILDOPTR
0065 D0D092AF       3789              DB 0D0H, 0D0H, 092H, 0AFH;
                    3790                             ; SOURCE LINE # 190
0069 7F00           3791             MOV     R7,#00H
006B 8006           3792             SJMP    ?C0111
A51 MACRO ASSEMBLER  UCOS_II                                                              07/03/2002 08:51:26 PAGE    59

                    3793                             ; SOURCE LINE # 191
006D                3794     ?C0114:
006D D0D092AF       3795              DB 0D0H, 0D0H, 092H, 0AFH;
                    3796                             ; SOURCE LINE # 193
0071 7F32           3797             MOV     R7,#032H
                    3798                             ; SOURCE LINE # 194
                    3799                             ; SOURCE LINE # 195
                    3800                             ; SOURCE LINE # 196
0073                3801     ?C0111:
0073 900003         3802             MOV     DPTR,#03H
0076 020000   F     3803             LJMP    ?C?ADDXBP
                    3804     ; END OF _?OSSemPost
                    3805     
                    3806     
----                3807             RSEG  ?PR?_?OSSemQuery?UCOS_II
0000                3808     _?OSSemQuery:
                    3809             USING   0
                    3810                             ; SOURCE LINE # 214
0000 120000   F     3811             LCALL   L?0185
0003 90FFF9         3812             MOV     DPTR,#0FFF9H
0006 120000   F     3813             LCALL   ?C?ADDXBP
0009 A2AFC2AF       3814              DB 0A2H, 0AFH, 0C2H, 0AFH, 0C0H, 0D0H;
000D C0D0                    
                    3815                             ; SOURCE LINE # 222
000F 900007         3816             MOV     DPTR,#07H
0012 120000   F     3817             LCALL   L?0188
0015 120000   F     3818             LCALL   L?0228
0018 6403           3819             XRL     A,#03H
001A 6008           3820             JZ      ?C0116
001C D0D092AF       3821              DB 0D0H, 0D0H, 092H, 0AFH;
                    3822                             ; SOURCE LINE # 224
0020 7F01           3823             MOV     R7,#01H
0022 0100     F     3824             AJMP    ?C0117
                    3825                             ; SOURCE LINE # 225
0024                3826     ?C0116:
                    3827                             ; SOURCE LINE # 226
0024 120000   F     3828             LCALL   L?0253
0027 FF             3829             MOV     R7,A
0028 90000A         3830             MOV     DPTR,#0AH
002B 120000   F     3831             LCALL   L?0188
002E 900003         3832             MOV     DPTR,#03H
0031 EF             3833             MOV     A,R7
0032 120000   F     3834             LCALL   ?C?CSTOPTR
                    3835                             ; SOURCE LINE # 227
0035 900007         3836             MOV     DPTR,#07H
0038 120000   F     3837             LCALL   L?0188
003B 120000   F     3838             LCALL   L?0223
003E 120000   F     3839             LCALL   L?0182
0041 A3             3840             INC     DPTR
0042 120000   F     3841             LCALL   ?C?PSTXDATA
                    3842                             ; SOURCE LINE # 228
0045 90000A         3843             MOV     DPTR,#0AH
0048 120000   F     3844             LCALL   L?0188
004B E9             3845             MOV     A,R1
004C 2402           3846             ADD     A,#02H
004E F9             3847             MOV     R1,A
004F E4             3848             CLR     A
0050 3A             3849             ADDC    A,R2
0051 FA             3850             MOV     R2,A
0052 120000   F     3851             LCALL   L?0212
                    3852                             ; SOURCE LINE # 229
0055 120000   F     3853             LCALL   L?0181
0058 E4             3854             CLR     A
0059 F0             3855             MOVX    @DPTR,A
005A                3856     ?C0118:
005A 120000   F     3857             LCALL   L?0182
A51 MACRO ASSEMBLER  UCOS_II                                                              07/03/2002 08:51:26 PAGE    60

005D E0             3858             MOVX    A,@DPTR
005E C3             3859             CLR     C
005F 9401           3860             SUBB    A,#01H
0061 500E           3861             JNC     ?C0119
                    3862                             ; SOURCE LINE # 230
0063 120000   F     3863             LCALL   L?0210
0066 120000   F     3864             LCALL   L?0276
                    3865                             ; SOURCE LINE # 231
0069 120000   F     3866             LCALL   L?0182
006C E0             3867             MOVX    A,@DPTR
006D 04             3868             INC     A
006E F0             3869             MOVX    @DPTR,A
006F 80E9           3870             SJMP    ?C0118
0071                3871     ?C0119:
                    3872                             ; SOURCE LINE # 232
0071 900007         3873             MOV     DPTR,#07H
0074 120000   F     3874             LCALL   L?0188
0077 120000   F     3875             LCALL   L?0263
007A FF             3876             MOV     R7,A
007B AEF0           3877             MOV     R6,B
007D 90000A         3878             MOV     DPTR,#0AH
0080 120000   F     3879             LCALL   L?0188
0083 EE             3880             MOV     A,R6
0084 8FF0           3881             MOV     B,R7
0086 120000   F     3882             LCALL   ?C?ISTPTR
0089 D0D092AF       3883              DB 0D0H, 0D0H, 092H, 0AFH;
                    3884                             ; SOURCE LINE # 234
008D 7F00           3885             MOV     R7,#00H
                    3886                             ; SOURCE LINE # 235
008F                3887     ?C0117:
008F 90000D         3888             MOV     DPTR,#0DH
0092 020000   F     3889             LJMP    ?C?ADDXBP
                    3890     ; END OF _?OSSemQuery
                    3891     
                    3892     
----                3893             RSEG  ?PR?OSDummy?UCOS_II
0000                3894     OSDummy:
                    3895                             ; SOURCE LINE # 43
                    3896                             ; SOURCE LINE # 44
                    3897                             ; SOURCE LINE # 45
0000 22             3898             RET     
                    3899     ; END OF OSDummy
                    3900     
                    3901     
----                3902             RSEG  ?PR?_?OSTaskCreate?UCOS_II
0000                3903     _?OSTaskCreate:
                    3904             USING   0
                    3905                             ; SOURCE LINE # 173
0000 120000   F     3906             LCALL   L?0185
0003 120000   F     3907             LCALL   L?0292
                    3908                             ; SOURCE LINE # 179
0006 90000D         3909             MOV     DPTR,#0DH
0009 120000   F     3910             LCALL   ?C?XBPOFF
000C E0             3911             MOVX    A,@DPTR
000D FE             3912             MOV     R6,A
000E D3             3913             SETB    C
000F 9404           3914             SUBB    A,#04H
0011 4004           3915             JC      ?C0122
                    3916                             ; SOURCE LINE # 180
0013 7F2A           3917             MOV     R7,#02AH
0015 0100     F     3918             AJMP    ?C0123
                    3919                             ; SOURCE LINE # 181
0017                3920     ?C0122:
0017 A2AFC2AF       3921              DB 0A2H, 0AFH, 0C2H, 0AFH, 0C0H, 0D0H;
001B C0D0                    
                    3922                             ; SOURCE LINE # 183
A51 MACRO ASSEMBLER  UCOS_II                                                              07/03/2002 08:51:26 PAGE    61

001D EE             3923             MOV     A,R6
001E 120000   F     3924             LCALL   L?0196
0021 120000   F     3925             LCALL   L?0218
0024 6002           3926             JZ      $ + 4H
0026 0100     F     3927             AJMP    ?C0124
                    3928                             ; SOURCE LINE # 184
0028 FB             3929             MOV     R3,A
0029 FA             3930             MOV     R2,A
002A 7901           3931             MOV     R1,#01H
002C EE             3932             MOV     A,R6
002D 120000   F     3933             LCALL   L?0196
0030 120000   F     3934             LCALL   ?C?PSTXDATA
0033 D0D092AF       3935              DB 0D0H, 0D0H, 092H, 0AFH;
                    3936                             ; SOURCE LINE # 187
0037 120000   F     3937             LCALL   L?0225
003A E4             3938             CLR     A
003B F0             3939             MOVX    @DPTR,A
003C A3             3940             INC     DPTR
003D F0             3941             MOVX    @DPTR,A
003E 90000C         3942             MOV     DPTR,#0CH
0041 120000   F     3943             LCALL   L?0188
0044 120000   F     3944             LCALL   L?0185
0047 90000C         3945             MOV     DPTR,#0CH
004A 120000   F     3946             LCALL   L?0188
004D 120000   F     3947             LCALL   L?0185
0050 90000C         3948             MOV     DPTR,#0CH
0053 120000   F     3949             LCALL   L?0188
0056 120000   F     3950             LCALL   _?OSTaskStkInit
0059 120000   F     3951             LCALL   L?0182
005C 120000   F     3952             LCALL   ?C?PSTXDATA
                    3953                             ; SOURCE LINE # 188
005F 120000   F     3954             LCALL   L?0225
0062 E4             3955             CLR     A
0063 F0             3956             MOVX    @DPTR,A
0064 A3             3957             INC     DPTR
0065 F0             3958             MOVX    @DPTR,A
0066 FB             3959             MOV     R3,A
0067 FA             3960             MOV     R2,A
0068 F9             3961             MOV     R1,A
0069 120000   F     3962             LCALL   L?0185
006C 120000   F     3963             LCALL   L?0225
006F E4             3964             CLR     A
0070 F0             3965             MOVX    @DPTR,A
0071 A3             3966             INC     DPTR
0072 F0             3967             MOVX    @DPTR,A
0073 120000   F     3968             LCALL   L?0225
0076 E4             3969             CLR     A
0077 F0             3970             MOVX    @DPTR,A
0078 A3             3971             INC     DPTR
0079 F0             3972             MOVX    @DPTR,A
007A FB             3973             MOV     R3,A
007B FA             3974             MOV     R2,A
007C F9             3975             MOV     R1,A
007D 120000   F     3976             LCALL   L?0185
0080 90000C         3977             MOV     DPTR,#0CH
0083 120000   F     3978             LCALL   L?0188
0086 900019         3979             MOV     DPTR,#019H
0089 120000   F     3980             LCALL   ?C?XBPOFF
008C E0             3981             MOVX    A,@DPTR
008D FF             3982             MOV     R7,A
008E 120000   F     3983             LCALL   _?OSTCBInit
0091 120000   F     3984             LCALL   L?0220
0094 EF             3985             MOV     A,R7
                    3986                             ; SOURCE LINE # 189
0095 120000   F     3987             LCALL   L?0219
0098 E0             3988             MOVX    A,@DPTR
A51 MACRO ASSEMBLER  UCOS_II                                                              07/03/2002 08:51:26 PAGE    62

0099 7027           3989             JNZ     ?C0125
009B A2AFC2AF       3990              DB 0A2H, 0AFH, 0C2H, 0AFH, 0C0H, 0D0H;
009F C0D0                    
                    3991                             ; SOURCE LINE # 191
00A1 900000   F     3992             MOV     DPTR,#OSTaskCtr
00A4 E0             3993             MOVX    A,@DPTR
00A5 04             3994             INC     A
00A6 F0             3995             MOVX    @DPTR,A
                    3996                             ; SOURCE LINE # 192
00A7 90000D         3997             MOV     DPTR,#0DH
00AA 120000   F     3998             LCALL   L?0194
00AD 120000   F     3999             LCALL   ?C?PLDXDATA
00B0 120000   F     4000             LCALL   _?OSTaskCreateHook
00B3 D0D092AF       4001              DB 0D0H, 0D0H, 092H, 0AFH;
                    4002                             ; SOURCE LINE # 194
00B7 900000   F     4003             MOV     DPTR,#OSRunning
00BA E0             4004             MOVX    A,@DPTR
00BB 601B           4005             JZ      ?C0127
                    4006                             ; SOURCE LINE # 195
00BD 120000   F     4007             LCALL   _?OSSched
                    4008                             ; SOURCE LINE # 196
                    4009                             ; SOURCE LINE # 197
00C0 8016           4010             SJMP    ?C0127
00C2                4011     ?C0125:
00C2 A2AFC2AF       4012              DB 0A2H, 0AFH, 0C2H, 0AFH, 0C0H, 0D0H;
00C6 C0D0                    
                    4013                             ; SOURCE LINE # 199
00C8 120000   F     4014             LCALL   L?0203
00CB 90000D         4015             MOV     DPTR,#0DH
00CE 120000   F     4016             LCALL   L?0194
00D1 120000   F     4017             LCALL   ?C?PSTXDATA
00D4 D0D092AF       4018              DB 0D0H, 0D0H, 092H, 0AFH;
                    4019                             ; SOURCE LINE # 201
00D8                4020     ?C0127:
                    4021                             ; SOURCE LINE # 202
00D8 120000   F     4022             LCALL   L?0220
00DB E0             4023             MOVX    A,@DPTR
00DC FF             4024             MOV     R7,A
00DD 8006           4025             SJMP    ?C0123
                    4026                             ; SOURCE LINE # 203
00DF                4027     ?C0124:
00DF D0D092AF       4028              DB 0D0H, 0D0H, 092H, 0AFH;
                    4029                             ; SOURCE LINE # 205
00E3 7F28           4030             MOV     R7,#028H
                    4031                             ; SOURCE LINE # 206
                    4032                             ; SOURCE LINE # 207
00E5                4033     ?C0123:
00E5 90000E         4034             MOV     DPTR,#0EH
00E8 020000   F     4035             LJMP    ?C?ADDXBP
                    4036     ; END OF _?OSTaskCreate
                    4037     
                    4038     
----                4039             RSEG  ?PR?_?OSTaskQuery?UCOS_II
0000                4040     _?OSTaskQuery:
                    4041             USING   0
                    4042                             ; SOURCE LINE # 700
0000 120000   F     4043             LCALL   L?0185
0003 120000   F     4044             LCALL   L?0213
                    4045                             ; SOURCE LINE # 705
0006 120000   F     4046             LCALL   L?0220
0009 E0             4047             MOVX    A,@DPTR
000A FE             4048             MOV     R6,A
000B D3             4049             SETB    C
000C 9404           4050             SUBB    A,#04H
000E 4008           4051             JC      ?C0129
0010 EE             4052             MOV     A,R6
A51 MACRO ASSEMBLER  UCOS_II                                                              07/03/2002 08:51:26 PAGE    63

0011 F4             4053             CPL     A
0012 6004           4054             JZ      ?C0129
                    4055                             ; SOURCE LINE # 706
0014 7F2A           4056             MOV     R7,#02AH
0016 805D           4057             SJMP    ?C0130
                    4058                             ; SOURCE LINE # 707
0018                4059     ?C0129:
0018 A2AFC2AF       4060              DB 0A2H, 0AFH, 0C2H, 0AFH, 0C0H, 0D0H;
001C C0D0                    
                    4061                             ; SOURCE LINE # 709
001E EE             4062             MOV     A,R6
001F B4FF0F         4063             CJNE    A,#0FFH,?C0131
                    4064                             ; SOURCE LINE # 710
0022 120000   F     4065             LCALL   L?0200
0025 900012         4066             MOV     DPTR,#012H
0028 120000   F     4067             LCALL   ?C?CLDOPTR
002B FF             4068             MOV     R7,A
002C 120000   F     4069             LCALL   L?0220
002F EF             4070             MOV     A,R7
0030 F0             4071             MOVX    @DPTR,A
                    4072                             ; SOURCE LINE # 711
0031                4073     ?C0131:
                    4074                             ; SOURCE LINE # 712
0031 120000   F     4075             LCALL   L?0193
0034 120000   F     4076             LCALL   ?C?PLDXDATA
0037 120000   F     4077             LCALL   L?0182
003A 120000   F     4078             LCALL   ?C?PSTXDATA
003D E9             4079             MOV     A,R1
003E 4A             4080             ORL     A,R2
003F 4B             4081             ORL     A,R3
0040 7008           4082             JNZ     ?C0132
0042 D0D092AF       4083              DB 0D0H, 0D0H, 092H, 0AFH;
                    4084                             ; SOURCE LINE # 714
0046 7F29           4085             MOV     R7,#029H
0048 802B           4086             SJMP    ?C0130
                    4087                             ; SOURCE LINE # 715
004A                4088     ?C0132:
                    4089                             ; SOURCE LINE # 716
004A 120000   F     4090             LCALL   L?0182
004D 120000   F     4091             LCALL   ?C?PLDXDATA
0050 C003           4092             PUSH    AR3
0052 C002           4093             PUSH    AR2
0054 C001           4094             PUSH    AR1
0056 900004         4095             MOV     DPTR,#04H
0059 120000   F     4096             LCALL   L?0188
005C A801           4097             MOV     R0,AR1
005E AC02           4098             MOV     R4,AR2
0060 AD03           4099             MOV     R5,AR3
0062 D001           4100             POP     AR1
0064 D002           4101             POP     AR2
0066 D003           4102             POP     AR3
0068 7E00           4103             MOV     R6,#00H
006A 7F17           4104             MOV     R7,#017H
006C 120000   F     4105             LCALL   ?C?COPY
006F D0D092AF       4106              DB 0D0H, 0D0H, 092H, 0AFH;
                    4107                             ; SOURCE LINE # 718
0073 7F00           4108             MOV     R7,#00H
                    4109                             ; SOURCE LINE # 719
0075                4110     ?C0130:
0075 900007         4111             MOV     DPTR,#07H
0078 020000   F     4112             LJMP    ?C?ADDXBP
                    4113     ; END OF _?OSTaskQuery
                    4114     
                    4115     
----                4116             RSEG  ?PR?_?OSTimeDly?UCOS_II
0000                4117     _?OSTimeDly:
A51 MACRO ASSEMBLER  UCOS_II                                                              07/03/2002 08:51:26 PAGE    64

                    4118             USING   0
                    4119                             ; SOURCE LINE # 37
0000 120000   F     4120             LCALL   L?0225
0003 EE             4121             MOV     A,R6
0004 F0             4122             MOVX    @DPTR,A
0005 A3             4123             INC     DPTR
0006 EF             4124             MOV     A,R7
0007 F0             4125             MOVX    @DPTR,A
                    4126                             ; SOURCE LINE # 39
0008 120000   F     4127             LCALL   L?0182
000B E0             4128             MOVX    A,@DPTR
000C FC             4129             MOV     R4,A
000D A3             4130             INC     DPTR
000E E0             4131             MOVX    A,@DPTR
000F FD             4132             MOV     R5,A
0010 D3             4133             SETB    C
0011 9400           4134             SUBB    A,#00H
0013 EC             4135             MOV     A,R4
0014 9400           4136             SUBB    A,#00H
0016 4038           4137             JC      ?C0135
0018 A2AFC2AF       4138              DB 0A2H, 0AFH, 0C2H, 0AFH, 0C0H, 0D0H;
001C C0D0                    
                    4139                             ; SOURCE LINE # 41
001E 120000   F     4140             LCALL   L?0200
0021 120000   F     4141             LCALL   L?0191
0024 C083           4142             PUSH    DPH
0026 C082           4143             PUSH    DPL
0028 E0             4144             MOVX    A,@DPTR
0029 120000   F     4145             LCALL   L?0199
002C 120000   F     4146             LCALL   L?0235
002F F4             4147             CPL     A
0030 FE             4148             MOV     R6,A
0031 EF             4149             MOV     A,R7
0032 5E             4150             ANL     A,R6
0033 D082           4151             POP     DPL
0035 D083           4152             POP     DPH
0037 F0             4153             MOVX    @DPTR,A
0038 7003           4154             JNZ     ?C0134
                    4155                             ; SOURCE LINE # 42
003A 120000   F     4156             LCALL   L?0247
                    4157                             ; SOURCE LINE # 43
003D                4158     ?C0134:
                    4159                             ; SOURCE LINE # 44
003D 120000   F     4160             LCALL   L?0200
0040 90000F         4161             MOV     DPTR,#0FH
0043 EC             4162             MOV     A,R4
0044 8DF0           4163             MOV     B,R5
0046 120000   F     4164             LCALL   ?C?ISTOPTR
0049 D0D092AF       4165              DB 0D0H, 0D0H, 092H, 0AFH;
                    4166                             ; SOURCE LINE # 46
004D 120000   F     4167             LCALL   _?OSSched
                    4168                             ; SOURCE LINE # 47
                    4169                             ; SOURCE LINE # 48
0050                4170     ?C0135:
0050 900002         4171             MOV     DPTR,#02H
0053 020000   F     4172             LJMP    ?C?ADDXBP
                    4173     ; END OF _?OSTimeDly
                    4174     
                    4175     
----                4176             RSEG  ?PR?_?OSTimeDlyHMSM?UCOS_II
0000                4177     _?OSTimeDlyHMSM:
                    4178             USING   0
                    4179                             ; SOURCE LINE # 75
0000 120000   F     4180             LCALL   L?0230
0003 EB             4181             MOV     A,R3
0004 120000   F     4182             LCALL   L?0229
A51 MACRO ASSEMBLER  UCOS_II                                                              07/03/2002 08:51:26 PAGE    65

0007 ED             4183             MOV     A,R5
0008 120000   F     4184             LCALL   L?0229
000B EF             4185             MOV     A,R7
000C F0             4186             MOVX    @DPTR,A
000D 90FFFA         4187             MOV     DPTR,#0FFFAH
0010 120000   F     4188             LCALL   ?C?ADDXBP
                    4189                             ; SOURCE LINE # 81
0013 120000   F     4190             LCALL   L?0246
0016 E0             4191             MOVX    A,@DPTR
0017 D3             4192             SETB    C
0018 9400           4193             SUBB    A,#00H
001A 501E           4194             JNC     ?C0137
001C 120000   F     4195             LCALL   L?0255
001F E0             4196             MOVX    A,@DPTR
0020 D3             4197             SETB    C
0021 9400           4198             SUBB    A,#00H
0023 5015           4199             JNC     ?C0137
0025 120000   F     4200             LCALL   L?0277
0028 D3             4201             SETB    C
0029 9400           4202             SUBB    A,#00H
002B 500D           4203             JNC     ?C0137
002D 900009         4204             MOV     DPTR,#09H
0030 120000   F     4205             LCALL   ?C?XBPOFF
0033 120000   F     4206             LCALL   L?0267
0036 5002           4207             JNC     $ + 4H
0038 0100     F     4208             AJMP    ?C0136
003A                4209     ?C0137:
                    4210                             ; SOURCE LINE # 82
003A 120000   F     4211             LCALL   L?0255
003D E0             4212             MOVX    A,@DPTR
003E FE             4213             MOV     R6,A
003F D3             4214             SETB    C
0040 943B           4215             SUBB    A,#03BH
0042 4004           4216             JC      ?C0138
                    4217                             ; SOURCE LINE # 83
0044 7F51           4218             MOV     R7,#051H
0046 0100     F     4219             AJMP    ?C0139
                    4220                             ; SOURCE LINE # 84
0048                4221     ?C0138:
                    4222                             ; SOURCE LINE # 85
0048 120000   F     4223             LCALL   L?0277
004B D3             4224             SETB    C
004C 943B           4225             SUBB    A,#03BH
004E 4004           4226             JC      ?C0140
                    4227                             ; SOURCE LINE # 86
0050 7F52           4228             MOV     R7,#052H
0052 0100     F     4229             AJMP    ?C0139
                    4230                             ; SOURCE LINE # 87
0054                4231     ?C0140:
                    4232                             ; SOURCE LINE # 88
0054 900009         4233             MOV     DPTR,#09H
0057 120000   F     4234             LCALL   L?0259
005A D3             4235             SETB    C
005B 94E7           4236             SUBB    A,#0E7H
005D EC             4237             MOV     A,R4
005E 9403           4238             SUBB    A,#03H
0060 4004           4239             JC      ?C0141
                    4240                             ; SOURCE LINE # 89
0062 7F53           4241             MOV     R7,#053H
0064 0100     F     4242             AJMP    ?C0139
                    4243                             ; SOURCE LINE # 90
0066                4244     ?C0141:
                    4245                             ; SOURCE LINE # 94
0066 AF06           4246             MOV     R7,AR6
0068 E4             4247             CLR     A
0069 FC             4248             MOV     R4,A
A51 MACRO ASSEMBLER  UCOS_II                                                              07/03/2002 08:51:26 PAGE    66

006A FD             4249             MOV     R5,A
006B FE             4250             MOV     R6,A
006C 7B3C           4251             MOV     R3,#03CH
006E 120000   F     4252             LCALL   L?0275
0071 C004           4253             PUSH    AR4
0073 C005           4254             PUSH    AR5
0075 C006           4255             PUSH    AR6
0077 C007           4256             PUSH    AR7
0079 120000   F     4257             LCALL   L?0246
007C E0             4258             MOVX    A,@DPTR
007D FF             4259             MOV     R7,A
007E E4             4260             CLR     A
007F FC             4261             MOV     R4,A
0080 FD             4262             MOV     R5,A
0081 FE             4263             MOV     R6,A
0082 7B10           4264             MOV     R3,#010H
0084 7A0E           4265             MOV     R2,#0EH
0086 F9             4266             MOV     R1,A
0087 F8             4267             MOV     R0,A
0088 120000   F     4268             LCALL   ?C?LMUL
008B D003           4269             POP     AR3
008D D002           4270             POP     AR2
008F D001           4271             POP     AR1
0091 D000           4272             POP     AR0
0093 120000   F     4273             LCALL   ?C?LADD
0096 A804           4274             MOV     R0,AR4
0098 A905           4275             MOV     R1,AR5
009A AA06           4276             MOV     R2,AR6
009C AB07           4277             MOV     R3,AR7
009E 120000   F     4278             LCALL   L?0278
00A1 FF             4279             MOV     R7,A
00A2 E4             4280             CLR     A
00A3 FC             4281             MOV     R4,A
00A4 FD             4282             MOV     R5,A
00A5 FE             4283             MOV     R6,A
00A6 120000   F     4284             LCALL   ?C?LADD
00A9 120000   F     4285             LCALL   L?0274
00AC C004           4286             PUSH    AR4
00AE C005           4287             PUSH    AR5
00B0 C006           4288             PUSH    AR6
00B2 C007           4289             PUSH    AR7
00B4 900009         4290             MOV     DPTR,#09H
00B7 120000   F     4291             LCALL   ?C?XBPOFF
00BA E0             4292             MOVX    A,@DPTR
00BB FE             4293             MOV     R6,A
00BC A3             4294             INC     DPTR
00BD E0             4295             MOVX    A,@DPTR
00BE FF             4296             MOV     R7,A
00BF EF             4297             MOV     A,R7
00C0 2405           4298             ADD     A,#05H
00C2 FF             4299             MOV     R7,A
00C3 E4             4300             CLR     A
00C4 3E             4301             ADDC    A,R6
00C5 FE             4302             MOV     R6,A
00C6 E4             4303             CLR     A
00C7 33             4304             RLC     A
00C8 FD             4305             MOV     R5,A
00C9 E4             4306             CLR     A
00CA 33             4307             RLC     A
00CB FC             4308             MOV     R4,A
00CC 120000   F     4309             LCALL   L?0274
00CF E4             4310             CLR     A
00D0 7BE8           4311             MOV     R3,#0E8H
00D2 7A03           4312             MOV     R2,#03H
00D4 F9             4313             MOV     R1,A
00D5 F8             4314             MOV     R0,A
A51 MACRO ASSEMBLER  UCOS_II                                                              07/03/2002 08:51:26 PAGE    67

00D6 120000   F     4315             LCALL   ?C?ULDIV
00D9 D003           4316             POP     AR3
00DB D002           4317             POP     AR2
00DD D001           4318             POP     AR1
00DF D000           4319             POP     AR0
00E1 120000   F     4320             LCALL   ?C?LADD
00E4 120000   F     4321             LCALL   L?0182
00E7 120000   F     4322             LCALL   ?C?LSTXDATA
                    4323                             ; SOURCE LINE # 95
00EA E4             4324             CLR     A
00EB FB             4325             MOV     R3,A
00EC FA             4326             MOV     R2,A
00ED 7901           4327             MOV     R1,#01H
00EF F8             4328             MOV     R0,A
00F0 120000   F     4329             LCALL   L?0182
00F3 120000   F     4330             LCALL   ?C?LLDXDATA
00F6 120000   F     4331             LCALL   ?C?ULDIV
00F9 120000   F     4332             LCALL   L?0212
00FC EE             4333             MOV     A,R6
00FD F0             4334             MOVX    @DPTR,A
00FE A3             4335             INC     DPTR
00FF EF             4336             MOV     A,R7
0100 F0             4337             MOVX    @DPTR,A
                    4338                             ; SOURCE LINE # 96
0101 120000   F     4339             LCALL   L?0182
0104 C083           4340             PUSH    DPH
0106 C082           4341             PUSH    DPL
0108 120000   F     4342             LCALL   ?C?LLDXDATA
010B E4             4343             CLR     A
010C FD             4344             MOV     R5,A
010D FC             4345             MOV     R4,A
010E D082           4346             POP     DPL
0110 D083           4347             POP     DPH
0112 120000   F     4348             LCALL   ?C?LSTXDATA
                    4349                             ; SOURCE LINE # 97
0115 120000   F     4350             LCALL   L?0182
0118 A3             4351             INC     DPTR
0119 A3             4352             INC     DPTR
011A E0             4353             MOVX    A,@DPTR
011B FE             4354             MOV     R6,A
011C A3             4355             INC     DPTR
011D E0             4356             MOVX    A,@DPTR
011E FF             4357             MOV     R7,A
011F 120000   F     4358             LCALL   _?OSTimeDly
0122                4359     ?C0142:
                    4360                             ; SOURCE LINE # 98
0122 120000   F     4361             LCALL   L?0212
0125 120000   F     4362             LCALL   L?0267
0128 401A           4363             JC      ?C0143
                    4364                             ; SOURCE LINE # 99
012A 7E80           4365             MOV     R6,#080H
012C 7F00           4366             MOV     R7,#00H
012E 120000   F     4367             LCALL   _?OSTimeDly
                    4368                             ; SOURCE LINE # 100
0131 7E80           4369             MOV     R6,#080H
0133 7F00           4370             MOV     R7,#00H
0135 120000   F     4371             LCALL   _?OSTimeDly
                    4372                             ; SOURCE LINE # 101
0138 120000   F     4373             LCALL   L?0212
013B 74FF           4374             MOV     A,#0FFH
013D F5F0           4375             MOV     B,A
013F 120000   F     4376             LCALL   ?C?IILDX
                    4377                             ; SOURCE LINE # 102
0142 80DE           4378             SJMP    ?C0142
0144                4379     ?C0143:
                    4380                             ; SOURCE LINE # 103
A51 MACRO ASSEMBLER  UCOS_II                                                              07/03/2002 08:51:26 PAGE    68

0144 7F00           4381             MOV     R7,#00H
0146 8002           4382             SJMP    ?C0139
                    4383                             ; SOURCE LINE # 104
0148                4384     ?C0136:
                    4385                             ; SOURCE LINE # 105
0148 7F54           4386             MOV     R7,#054H
                    4387                             ; SOURCE LINE # 106
                    4388                             ; SOURCE LINE # 107
014A                4389     ?C0139:
014A 90000B         4390             MOV     DPTR,#0BH
014D 020000   F     4391             LJMP    ?C?ADDXBP
                    4392     ; END OF _?OSTimeDlyHMSM
                    4393     
                    4394     
----                4395             RSEG  ?PR?_?OSTimeDlyResume?UCOS_II
0000                4396     _?OSTimeDlyResume:
                    4397             USING   0
                    4398                             ; SOURCE LINE # 133
0000 120000   F     4399             LCALL   L?0214
                    4400                             ; SOURCE LINE # 138
0003 120000   F     4401             LCALL   L?0220
0006 E0             4402             MOVX    A,@DPTR
0007 FE             4403             MOV     R6,A
0008 C3             4404             CLR     C
0009 9404           4405             SUBB    A,#04H
000B 4004           4406             JC      ?C0145
                    4407                             ; SOURCE LINE # 139
000D 7F2A           4408             MOV     R7,#02AH
000F 0100     F     4409             AJMP    ?C0146
                    4410                             ; SOURCE LINE # 140
0011                4411     ?C0145:
0011 A2AFC2AF       4412              DB 0A2H, 0AFH, 0C2H, 0AFH, 0C0H, 0D0H;
0015 C0D0                    
                    4413                             ; SOURCE LINE # 142
0017 EE             4414             MOV     A,R6
                    4415                             ; SOURCE LINE # 143
0018 120000   F     4416             LCALL   L?0178
001B 120000   F     4417             LCALL   L?0218
001E 604E           4418             JZ      ?C0147
                    4419                             ; SOURCE LINE # 144
0020 120000   F     4420             LCALL   L?0182
0023 120000   F     4421             LCALL   L?0291
0026 120000   F     4422             LCALL   ?C?ILDOPTR
0029 45F0           4423             ORL     A,B
002B 6039           4424             JZ      ?C0148
                    4425                             ; SOURCE LINE # 145
002D 120000   F     4426             LCALL   L?0237
                    4427                             ; SOURCE LINE # 146
0030 120000   F     4428             LCALL   L?0257
0033 20E328         4429             JB      ACC.3,?C0149
                    4430                             ; SOURCE LINE # 147
0036 900000   F     4431             MOV     DPTR,#OSRdyGrp
0039 E0             4432             MOVX    A,@DPTR
003A FF             4433             MOV     R7,A
003B 120000   F     4434             LCALL   L?0182
                    4435                             ; SOURCE LINE # 148
003E 120000   F     4436             LCALL   L?0189
0041 C083           4437             PUSH    DPH
0043 C082           4438             PUSH    DPL
0045 E0             4439             MOVX    A,@DPTR
0046 FF             4440             MOV     R7,A
0047 120000   F     4441             LCALL   L?0182
004A 120000   F     4442             LCALL   L?0234
004D FE             4443             MOV     R6,A
004E EF             4444             MOV     A,R7
004F 4E             4445             ORL     A,R6
A51 MACRO ASSEMBLER  UCOS_II                                                              07/03/2002 08:51:26 PAGE    69

0050 D082           4446             POP     DPL
0052 D083           4447             POP     DPH
0054 F0             4448             MOVX    @DPTR,A
0055 D0D092AF       4449              DB 0D0H, 0D0H, 092H, 0AFH;
                    4450                             ; SOURCE LINE # 150
0059 120000   F     4451             LCALL   _?OSSched
                    4452                             ; SOURCE LINE # 151
005C 8004           4453             SJMP    ?C0150
005E                4454     ?C0149:
005E D0D092AF       4455              DB 0D0H, 0D0H, 092H, 0AFH;                         
                    4456                             ; SOURCE LINE # 153
0062                4457     ?C0150:
                    4458                             ; SOURCE LINE # 154
0062 7F00           4459             MOV     R7,#00H
0064 800E           4460             SJMP    ?C0146
                    4461                             ; SOURCE LINE # 155
0066                4462     ?C0148:
0066 D0D092AF       4463              DB 0D0H, 0D0H, 092H, 0AFH;
                    4464                             ; SOURCE LINE # 157
006A 7F50           4465             MOV     R7,#050H
006C 8006           4466             SJMP    ?C0146
                    4467                             ; SOURCE LINE # 158
                    4468                             ; SOURCE LINE # 159
006E                4469     ?C0147:
006E D0D092AF       4470              DB 0D0H, 0D0H, 092H, 0AFH;
                    4471                             ; SOURCE LINE # 161
0072 7F0B           4472             MOV     R7,#0BH
                    4473                             ; SOURCE LINE # 162
                    4474                             ; SOURCE LINE # 163
0074                4475     ?C0146:
0074 900004         4476             MOV     DPTR,#04H
0077 020000   F     4477             LJMP    ?C?ADDXBP
                    4478     ; END OF _?OSTimeDlyResume
                    4479     
                    4480     
----                4481             RSEG  ?PR?_?OSTimeGet?UCOS_II
0000                4482     _?OSTimeGet:
                    4483             USING   0
                    4484                             ; SOURCE LINE # 178
0000 120000   F     4485             LCALL   L?0292
0003 A2AFC2AF       4486              DB 0A2H, 0AFH, 0C2H, 0AFH, 0C0H, 0D0H;
0007 C0D0                    
                    4487                             ; SOURCE LINE # 184
0009 900000   F     4488             MOV     DPTR,#OSTime
000C 120000   F     4489             LCALL   ?C?LLDXDATA
000F 120000   F     4490             LCALL   L?0182
0012 120000   F     4491             LCALL   ?C?LSTXDATA
0015 D0D092AF       4492              DB 0D0H, 0D0H, 092H, 0AFH;
                    4493                             ; SOURCE LINE # 186
0019 120000   F     4494             LCALL   L?0182
001C 120000   F     4495             LCALL   ?C?LLDXDATA
                    4496                             ; SOURCE LINE # 187
001F                4497     ?C0153:
001F 900004         4498             MOV     DPTR,#04H
0022 020000   F     4499             LJMP    ?C?ADDXBP
                    4500     ; END OF _?OSTimeGet
                    4501     
                    4502     
----                4503             RSEG  ?PR?_?OSTimeSet?UCOS_II
0000                4504     _?OSTimeSet:
                    4505             USING   0
                    4506                             ; SOURCE LINE # 201
0000 120000   F     4507             LCALL   L?0293
0003 120000   F     4508             LCALL   ?C?LSTXDATA
0006 A2AFC2AF       4509              DB 0A2H, 0AFH, 0C2H, 0AFH, 0C0H, 0D0H;
000A C0D0                    
A51 MACRO ASSEMBLER  UCOS_II                                                              07/03/2002 08:51:26 PAGE    70

                    4510                             ; SOURCE LINE # 204
000C 120000   F     4511             LCALL   L?0182
000F 120000   F     4512             LCALL   ?C?LLDXDATA
0012 900000   F     4513             MOV     DPTR,#OSTime
0015 120000   F     4514             LCALL   ?C?LSTXDATA
0018 D0D092AF       4515              DB 0D0H, 0D0H, 092H, 0AFH;
                    4516                             ; SOURCE LINE # 206
001C 900004         4517             MOV     DPTR,#04H
001F 020000   F     4518             LJMP    ?C?ADDXBP
                    4519     ; END OF _?OSTimeSet
                    4520     
                    4521             END
A51 MACRO ASSEMBLER  UCOS_II                                                              07/03/2002 08:51:26 PAGE    71

SYMBOL TABLE LISTING
------ ----- -------


N A M E                            T Y P E  V A L U E   ATTRIBUTES

?C0001. . . . . . . . . . . . . .  C ADDR   007AH   R   SEG=?PR?_?OSEVENTTASKRDY?UCOS_II
?C0003. . . . . . . . . . . . . .  C ADDR   00ECH   R   SEG=?PR?_?OSEVENTTASKRDY?UCOS_II
?C0004. . . . . . . . . . . . . .  C ADDR   0037H   R   SEG=?PR?_?OSEVENTTASKWAIT?UCOS_II
?C0006. . . . . . . . . . . . . .  C ADDR   004BH   R   SEG=?PR?_?OSEVENTTO?UCOS_II
?C0008. . . . . . . . . . . . . .  C ADDR   0019H   R   SEG=?PR?_?OSEVENTWAITLISTINIT?UCOS_II
?C0011. . . . . . . . . . . . . .  C ADDR   0038H   R   SEG=?PR?_?OSEVENTWAITLISTINIT?UCOS_II
?C0012. . . . . . . . . . . . . .  C ADDR   003DH   R   SEG=?PR?_?OSINIT?UCOS_II
?C0013. . . . . . . . . . . . . .  C ADDR   005EH   R   SEG=?PR?_?OSINIT?UCOS_II
?C0015. . . . . . . . . . . . . .  C ADDR   0077H   R   SEG=?PR?_?OSINIT?UCOS_II
?C0016. . . . . . . . . . . . . .  C ADDR   00A2H   R   SEG=?PR?_?OSINIT?UCOS_II
?C0018. . . . . . . . . . . . . .  C ADDR   00A9H   R   SEG=?PR?_?OSINIT?UCOS_II
?C0019. . . . . . . . . . . . . .  C ADDR   00E8H   R   SEG=?PR?_?OSINIT?UCOS_II
?C0021. . . . . . . . . . . . . .  C ADDR   0100H   R   SEG=?PR?_?OSINIT?UCOS_II
?C0022. . . . . . . . . . . . . .  C ADDR   0133H   R   SEG=?PR?_?OSINIT?UCOS_II
?C0026. . . . . . . . . . . . . .  C ADDR   0038H   R   SEG=?PR?_?OSINTEXIT?UCOS_II
?C0029. . . . . . . . . . . . . .  C ADDR   0030H   R   SEG=?PR?_?OSSCHED?UCOS_II
?C0033. . . . . . . . . . . . . .  C ADDR   0017H   R   SEG=?PR?_?OSSCHEDLOCK?UCOS_II
?C0035. . . . . . . . . . . . . .  C ADDR   002BH   R   SEG=?PR?_?OSSCHEDUNLOCK?UCOS_II
?C0036. . . . . . . . . . . . . .  C ADDR   0026H   R   SEG=?PR?_?OSSCHEDUNLOCK?UCOS_II
?C0039. . . . . . . . . . . . . .  C ADDR   002FH   R   SEG=?PR?_?OSSCHEDUNLOCK?UCOS_II
?C0041. . . . . . . . . . . . . .  C ADDR   003AH   R   SEG=?PR?_?OSSTART?UCOS_II
?C0043. . . . . . . . . . . . . .  C ADDR   000FH   R   SEG=?PR?_?OSTASKIDLE?UCOS_II
?C0046. . . . . . . . . . . . . .  C ADDR   0015H   R   SEG=?PR?_?OSTASKSTAT?UCOS_II
?C0048. . . . . . . . . . . . . .  C ADDR   0023H   R   SEG=?PR?_?OSTASKSTAT?UCOS_II
?C0050. . . . . . . . . . . . . .  C ADDR   00A0H   R   SEG=?PR?_?OSTASKSTAT?UCOS_II
?C0051. . . . . . . . . . . . . .  C ADDR   008FH   R   SEG=?PR?_?OSTASKSTAT?UCOS_II
?C0053. . . . . . . . . . . . . .  C ADDR   0099H   R   SEG=?PR?_?OSTASKSTAT?UCOS_II
?C0055. . . . . . . . . . . . . .  C ADDR   00A5H   R   SEG=?PR?_?OSTASKSTAT?UCOS_II
?C0057. . . . . . . . . . . . . .  C ADDR   0182H   R   SEG=?PR?_?OSTCBINIT?UCOS_II
?C0058. . . . . . . . . . . . . .  C ADDR   014FH   R   SEG=?PR?_?OSTCBINIT?UCOS_II
?C0059. . . . . . . . . . . . . .  C ADDR   0188H   R   SEG=?PR?_?OSTCBINIT?UCOS_II
?C0061. . . . . . . . . . . . . .  C ADDR   0012H   R   SEG=?PR?_?OSTIMETICK?UCOS_II
?C0062. . . . . . . . . . . . . .  C ADDR   0085H   R   SEG=?PR?_?OSTIMETICK?UCOS_II
?C0063. . . . . . . . . . . . . .  C ADDR   0070H   R   SEG=?PR?_?OSTIMETICK?UCOS_II
?C0065. . . . . . . . . . . . . .  C ADDR   0063H   R   SEG=?PR?_?OSTIMETICK?UCOS_II
?C0068. . . . . . . . . . . . . .  C ADDR   0004H   R   SEG=?PR?_?OSVERSION?UCOS_II
?C0069. . . . . . . . . . . . . .  C ADDR   001FH   R   SEG=?PR?_?OSMBOXACCEPT?UCOS_II
?C0070. . . . . . . . . . . . . .  C ADDR   0046H   R   SEG=?PR?_?OSMBOXACCEPT?UCOS_II
?C0071. . . . . . . . . . . . . .  C ADDR   003CH   R   SEG=?PR?_?OSMBOXACCEPT?UCOS_II
?C0072. . . . . . . . . . . . . .  C ADDR   001DH   R   SEG=?PR?_?OSMBOXCREATE?UCOS_II
?C0073. . . . . . . . . . . . . .  C ADDR   004FH   R   SEG=?PR?_?OSMBOXCREATE?UCOS_II
?C0074. . . . . . . . . . . . . .  C ADDR   0055H   R   SEG=?PR?_?OSMBOXCREATE?UCOS_II
?C0075. . . . . . . . . . . . . .  C ADDR   0032H   R   SEG=?PR?_?OSMBOXPEND?UCOS_II
?C0076. . . . . . . . . . . . . .  C ADDR   0149H   R   SEG=?PR?_?OSMBOXPEND?UCOS_II
?C0077. . . . . . . . . . . . . .  C ADDR   0055H   R   SEG=?PR?_?OSMBOXPEND?UCOS_II
?C0078. . . . . . . . . . . . . .  C ADDR   0143H   R   SEG=?PR?_?OSMBOXPEND?UCOS_II
?C0079. . . . . . . . . . . . . .  C ADDR   006CH   R   SEG=?PR?_?OSMBOXPEND?UCOS_II
?C0081. . . . . . . . . . . . . .  C ADDR   00E2H   R   SEG=?PR?_?OSMBOXPEND?UCOS_II
?C0083. . . . . . . . . . . . . .  C ADDR   0108H   R   SEG=?PR?_?OSMBOXPEND?UCOS_II
?C0085. . . . . . . . . . . . . .  C ADDR   001BH   R   SEG=?PR?_?OSMBOXPOST?UCOS_II
?C0086. . . . . . . . . . . . . .  C ADDR   0071H   R   SEG=?PR?_?OSMBOXPOST?UCOS_II
?C0087. . . . . . . . . . . . . .  C ADDR   0043H   R   SEG=?PR?_?OSMBOXPOST?UCOS_II
?C0089. . . . . . . . . . . . . .  C ADDR   0059H   R   SEG=?PR?_?OSMBOXPOST?UCOS_II
?C0091. . . . . . . . . . . . . .  C ADDR   0024H   R   SEG=?PR?_?OSMBOXQUERY?UCOS_II
?C0092. . . . . . . . . . . . . .  C ADDR   008BH   R   SEG=?PR?_?OSMBOXQUERY?UCOS_II
?C0093. . . . . . . . . . . . . .  C ADDR   0056H   R   SEG=?PR?_?OSMBOXQUERY?UCOS_II
?C0094. . . . . . . . . . . . . .  C ADDR   006DH   R   SEG=?PR?_?OSMBOXQUERY?UCOS_II
?C0096. . . . . . . . . . . . . .  C ADDR   0022H   R   SEG=?PR?_?OSSEMACCEPT?UCOS_II
?C0097. . . . . . . . . . . . . .  C ADDR   0043H   R   SEG=?PR?_?OSSEMACCEPT?UCOS_II
?C0098. . . . . . . . . . . . . .  C ADDR   003FH   R   SEG=?PR?_?OSSEMACCEPT?UCOS_II
A51 MACRO ASSEMBLER  UCOS_II                                                              07/03/2002 08:51:26 PAGE    72

?C0099. . . . . . . . . . . . . .  C ADDR   0020H   R   SEG=?PR?_?OSSEMCREATE?UCOS_II
?C0100. . . . . . . . . . . . . .  C ADDR   004AH   R   SEG=?PR?_?OSSEMCREATE?UCOS_II
?C0101. . . . . . . . . . . . . .  C ADDR   0050H   R   SEG=?PR?_?OSSEMCREATE?UCOS_II
?C0102. . . . . . . . . . . . . .  C ADDR   002AH   R   SEG=?PR?_?OSSEMPEND?UCOS_II
?C0103. . . . . . . . . . . . . .  C ADDR   0042H   R   SEG=?PR?_?OSSEMPEND?UCOS_II
?C0105. . . . . . . . . . . . . .  C ADDR   0059H   R   SEG=?PR?_?OSSEMPEND?UCOS_II
?C0107. . . . . . . . . . . . . .  C ADDR   00ADH   R   SEG=?PR?_?OSSEMPEND?UCOS_II
?C0109. . . . . . . . . . . . . .  C ADDR   00CDH   R   SEG=?PR?_?OSSEMPEND?UCOS_II
?C0110. . . . . . . . . . . . . .  C ADDR   001BH   R   SEG=?PR?_?OSSEMPOST?UCOS_II
?C0111. . . . . . . . . . . . . .  C ADDR   0073H   R   SEG=?PR?_?OSSEMPOST?UCOS_II
?C0112. . . . . . . . . . . . . .  C ADDR   003DH   R   SEG=?PR?_?OSSEMPOST?UCOS_II
?C0114. . . . . . . . . . . . . .  C ADDR   006DH   R   SEG=?PR?_?OSSEMPOST?UCOS_II
?C0116. . . . . . . . . . . . . .  C ADDR   0024H   R   SEG=?PR?_?OSSEMQUERY?UCOS_II
?C0117. . . . . . . . . . . . . .  C ADDR   008FH   R   SEG=?PR?_?OSSEMQUERY?UCOS_II
?C0118. . . . . . . . . . . . . .  C ADDR   005AH   R   SEG=?PR?_?OSSEMQUERY?UCOS_II
?C0119. . . . . . . . . . . . . .  C ADDR   0071H   R   SEG=?PR?_?OSSEMQUERY?UCOS_II
?C0122. . . . . . . . . . . . . .  C ADDR   0017H   R   SEG=?PR?_?OSTASKCREATE?UCOS_II
?C0123. . . . . . . . . . . . . .  C ADDR   00E5H   R   SEG=?PR?_?OSTASKCREATE?UCOS_II
?C0124. . . . . . . . . . . . . .  C ADDR   00DFH   R   SEG=?PR?_?OSTASKCREATE?UCOS_II
?C0125. . . . . . . . . . . . . .  C ADDR   00C2H   R   SEG=?PR?_?OSTASKCREATE?UCOS_II
?C0127. . . . . . . . . . . . . .  C ADDR   00D8H   R   SEG=?PR?_?OSTASKCREATE?UCOS_II
?C0129. . . . . . . . . . . . . .  C ADDR   0018H   R   SEG=?PR?_?OSTASKQUERY?UCOS_II
?C0130. . . . . . . . . . . . . .  C ADDR   0075H   R   SEG=?PR?_?OSTASKQUERY?UCOS_II
?C0131. . . . . . . . . . . . . .  C ADDR   0031H   R   SEG=?PR?_?OSTASKQUERY?UCOS_II
?C0132. . . . . . . . . . . . . .  C ADDR   004AH   R   SEG=?PR?_?OSTASKQUERY?UCOS_II
?C0134. . . . . . . . . . . . . .  C ADDR   003DH   R   SEG=?PR?_?OSTIMEDLY?UCOS_II
?C0135. . . . . . . . . . . . . .  C ADDR   0050H   R   SEG=?PR?_?OSTIMEDLY?UCOS_II
?C0136. . . . . . . . . . . . . .  C ADDR   0148H   R   SEG=?PR?_?OSTIMEDLYHMSM?UCOS_II
?C0137. . . . . . . . . . . . . .  C ADDR   003AH   R   SEG=?PR?_?OSTIMEDLYHMSM?UCOS_II
?C0138. . . . . . . . . . . . . .  C ADDR   0048H   R   SEG=?PR?_?OSTIMEDLYHMSM?UCOS_II
?C0139. . . . . . . . . . . . . .  C ADDR   014AH   R   SEG=?PR?_?OSTIMEDLYHMSM?UCOS_II
?C0140. . . . . . . . . . . . . .  C ADDR   0054H   R   SEG=?PR?_?OSTIMEDLYHMSM?UCOS_II
?C0141. . . . . . . . . . . . . .  C ADDR   0066H   R   SEG=?PR?_?OSTIMEDLYHMSM?UCOS_II
?C0142. . . . . . . . . . . . . .  C ADDR   0122H   R   SEG=?PR?_?OSTIMEDLYHMSM?UCOS_II
?C0143. . . . . . . . . . . . . .  C ADDR   0144H   R   SEG=?PR?_?OSTIMEDLYHMSM?UCOS_II
?C0145. . . . . . . . . . . . . .  C ADDR   0011H   R   SEG=?PR?_?OSTIMEDLYRESUME?UCOS_II
?C0146. . . . . . . . . . . . . .  C ADDR   0074H   R   SEG=?PR?_?OSTIMEDLYRESUME?UCOS_II
?C0147. . . . . . . . . . . . . .  C ADDR   006EH   R   SEG=?PR?_?OSTIMEDLYRESUME?UCOS_II
?C0148. . . . . . . . . . . . . .  C ADDR   0066H   R   SEG=?PR?_?OSTIMEDLYRESUME?UCOS_II
?C0149. . . . . . . . . . . . . .  C ADDR   005EH   R   SEG=?PR?_?OSTIMEDLYRESUME?UCOS_II
?C0150. . . . . . . . . . . . . .  C ADDR   0062H   R   SEG=?PR?_?OSTIMEDLYRESUME?UCOS_II
?C0153. . . . . . . . . . . . . .  C ADDR   001FH   R   SEG=?PR?_?OSTIMEGET?UCOS_II
?C0155. . . . . . . . . . . . . .  C ADDR   0110H   R   SEG=?PR?_?OSINIT?UCOS_II
?C0169. . . . . . . . . . . . . .  C ADDR   00A0H   R   SEG=?PR?_?OSTASKSTAT?UCOS_II
?C0170. . . . . . . . . . . . . .  C ADDR   00D9H   R   SEG=?PR?_?OSMBOXPEND?UCOS_II
?C0171. . . . . . . . . . . . . .  C ADDR   00E0H   R   SEG=?PR?_?OSMBOXPEND?UCOS_II
?C0172. . . . . . . . . . . . . .  C ADDR   0106H   R   SEG=?PR?_?OSMBOXPEND?UCOS_II
?C0173. . . . . . . . . . . . . .  C ADDR   0140H   R   SEG=?PR?_?OSMBOXPEND?UCOS_II
?C0174. . . . . . . . . . . . . .  C ADDR   00C3H   R   SEG=?PR?_?OSSEMPEND?UCOS_II
?C0175. . . . . . . . . . . . . .  C ADDR   00ABH   R   SEG=?PR?_?OSSEMPEND?UCOS_II
?C0176. . . . . . . . . . . . . .  C ADDR   00CAH   R   SEG=?PR?_?OSSEMPEND?UCOS_II
?C?ADDXBP . . . . . . . . . . . .  C ADDR   -----       EXT
?C?CLDOPTR. . . . . . . . . . . .  C ADDR   -----       EXT
?C?CLDPTR . . . . . . . . . . . .  C ADDR   -----       EXT
?C?COPY . . . . . . . . . . . . .  C ADDR   -----       EXT
?C?CSTOPTR. . . . . . . . . . . .  C ADDR   -----       EXT
?C?CSTPTR . . . . . . . . . . . .  C ADDR   -----       EXT
?C?IILDOPTR . . . . . . . . . . .  C ADDR   -----       EXT
?C?IILDX. . . . . . . . . . . . .  C ADDR   -----       EXT
?C?ILDOPTR. . . . . . . . . . . .  C ADDR   -----       EXT
?C?IMUL . . . . . . . . . . . . .  C ADDR   -----       EXT
?C?ISTOPTR. . . . . . . . . . . .  C ADDR   -----       EXT
?C?ISTPTR . . . . . . . . . . . .  C ADDR   -----       EXT
?C?LADD . . . . . . . . . . . . .  C ADDR   -----       EXT
?C?LLDXDATA . . . . . . . . . . .  C ADDR   -----       EXT
?C?LLDXDATA0. . . . . . . . . . .  C ADDR   -----       EXT
A51 MACRO ASSEMBLER  UCOS_II                                                              07/03/2002 08:51:26 PAGE    73

?C?LMUL . . . . . . . . . . . . .  C ADDR   -----       EXT
?C?LSTKXDATA. . . . . . . . . . .  C ADDR   -----       EXT
?C?LSTXDATA . . . . . . . . . . .  C ADDR   -----       EXT
?C?OFFXADD. . . . . . . . . . . .  C ADDR   -----       EXT
?C?PLDIXDATA. . . . . . . . . . .  C ADDR   -----       EXT
?C?PLDOPTR. . . . . . . . . . . .  C ADDR   -----       EXT
?C?PLDPTR . . . . . . . . . . . .  C ADDR   -----       EXT
?C?PLDXDATA . . . . . . . . . . .  C ADDR   -----       EXT
?C?PSTOPTR. . . . . . . . . . . .  C ADDR   -----       EXT
?C?PSTPTR . . . . . . . . . . . .  C ADDR   -----       EXT
?C?PSTXDATA . . . . . . . . . . .  C ADDR   -----       EXT
?C?SLCMP. . . . . . . . . . . . .  C ADDR   -----       EXT
?C?ULCMP. . . . . . . . . . . . .  C ADDR   -----       EXT
?C?ULDIV. . . . . . . . . . . . .  C ADDR   -----       EXT
?C?XBPOFF . . . . . . . . . . . .  C ADDR   -----       EXT
?C_INITSEG. . . . . . . . . . . .  C SEG    010FH       REL=UNIT
?C_XBP. . . . . . . . . . . . . .  D ADDR   -----       EXT
?PR?OSDUMMY?UCOS_II . . . . . . .  C SEG    0001H       REL=INBLOCK
?PR?UCOS_II . . . . . . . . . . .  C SEG    0244H       REL=INBLOCK
?PR?_?OSEVENTTASKRDY?UCOS_II. . .  C SEG    00F2H       REL=INBLOCK
?PR?_?OSEVENTTASKWAIT?UCOS_II . .  C SEG    0081H       REL=INBLOCK
?PR?_?OSEVENTTO?UCOS_II . . . . .  C SEG    0066H       REL=INBLOCK
?PR?_?OSEVENTWAITLISTINIT?UCOS_II  C SEG    003EH       REL=INBLOCK
?PR?_?OSINIT?UCOS_II. . . . . . .  C SEG    0174H       REL=INBLOCK
?PR?_?OSINTENTER?UCOS_II. . . . .  C SEG    0011H       REL=INBLOCK
?PR?_?OSINTEXIT?UCOS_II . . . . .  C SEG    003DH       REL=INBLOCK
?PR?_?OSMBOXACCEPT?UCOS_II. . . .  C SEG    004CH       REL=INBLOCK
?PR?_?OSMBOXCREATE?UCOS_II. . . .  C SEG    005BH       REL=INBLOCK
?PR?_?OSMBOXPEND?UCOS_II. . . . .  C SEG    014FH       REL=INBLOCK
?PR?_?OSMBOXPOST?UCOS_II. . . . .  C SEG    0077H       REL=INBLOCK
?PR?_?OSMBOXQUERY?UCOS_II . . . .  C SEG    0091H       REL=INBLOCK
?PR?_?OSSCHED?UCOS_II . . . . . .  C SEG    003AH       REL=INBLOCK
?PR?_?OSSCHEDLOCK?UCOS_II . . . .  C SEG    0018H       REL=INBLOCK
?PR?_?OSSCHEDUNLOCK?UCOS_II . . .  C SEG    0030H       REL=INBLOCK
?PR?_?OSSEMACCEPT?UCOS_II . . . .  C SEG    0049H       REL=INBLOCK
?PR?_?OSSEMCREATE?UCOS_II . . . .  C SEG    0056H       REL=INBLOCK
?PR?_?OSSEMPEND?UCOS_II . . . . .  C SEG    00D3H       REL=INBLOCK
?PR?_?OSSEMPOST?UCOS_II . . . . .  C SEG    0079H       REL=INBLOCK
?PR?_?OSSEMQUERY?UCOS_II. . . . .  C SEG    0095H       REL=INBLOCK
?PR?_?OSSTART?UCOS_II . . . . . .  C SEG    0040H       REL=INBLOCK
?PR?_?OSSTATINIT?UCOS_II. . . . .  C SEG    003CH       REL=INBLOCK
?PR?_?OSTASKCREATE?UCOS_II. . . .  C SEG    00EBH       REL=INBLOCK
?PR?_?OSTASKIDLE?UCOS_II. . . . .  C SEG    0024H       REL=INBLOCK
?PR?_?OSTASKQUERY?UCOS_II . . . .  C SEG    007BH       REL=INBLOCK
?PR?_?OSTASKSTAT?UCOS_II. . . . .  C SEG    00B1H       REL=INBLOCK
?PR?_?OSTCBINIT?UCOS_II . . . . .  C SEG    018EH       REL=INBLOCK
?PR?_?OSTIMEDLY?UCOS_II . . . . .  C SEG    0056H       REL=INBLOCK
?PR?_?OSTIMEDLYHMSM?UCOS_II . . .  C SEG    0150H       REL=INBLOCK
?PR?_?OSTIMEDLYRESUME?UCOS_II . .  C SEG    007AH       REL=INBLOCK
?PR?_?OSTIMEGET?UCOS_II . . . . .  C SEG    0025H       REL=INBLOCK
?PR?_?OSTIMESET?UCOS_II . . . . .  C SEG    0022H       REL=INBLOCK
?PR?_?OSTIMETICK?UCOS_II. . . . .  C SEG    00AEH       REL=INBLOCK
?PR?_?OSVERSION?UCOS_II . . . . .  C SEG    0005H       REL=INBLOCK
?XD?UCOS_II . . . . . . . . . . .  X SEG    0250H       REL=UNIT
AC. . . . . . . . . . . . . . . .  B ADDR   00D0H.6 A   
ACC . . . . . . . . . . . . . . .  D ADDR   00E0H   A   
AR0 . . . . . . . . . . . . . . .  D ADDR   0000H   A   
AR1 . . . . . . . . . . . . . . .  D ADDR   0001H   A   
AR2 . . . . . . . . . . . . . . .  D ADDR   0002H   A   
AR3 . . . . . . . . . . . . . . .  D ADDR   0003H   A   
AR4 . . . . . . . . . . . . . . .  D ADDR   0004H   A   
AR5 . . . . . . . . . . . . . . .  D ADDR   0005H   A   
AR6 . . . . . . . . . . . . . . .  D ADDR   0006H   A   
AR7 . . . . . . . . . . . . . . .  D ADDR   0007H   A   
B . . . . . . . . . . . . . . . .  D ADDR   00F0H   A   
COM00B1 . . . . . . . . . . . . .  C ADDR   0000H   R   SEG=?PR?UCOS_II
A51 MACRO ASSEMBLER  UCOS_II                                                              07/03/2002 08:51:26 PAGE    74

CP_RL2. . . . . . . . . . . . . .  B ADDR   00C8H.0 A   
CY. . . . . . . . . . . . . . . .  B ADDR   00D0H.7 A   
C_T2. . . . . . . . . . . . . . .  B ADDR   00C8H.1 A   
DPH . . . . . . . . . . . . . . .  D ADDR   0083H   A   
DPL . . . . . . . . . . . . . . .  D ADDR   0082H   A   
EA. . . . . . . . . . . . . . . .  B ADDR   00A8H.7 A   
ES. . . . . . . . . . . . . . . .  B ADDR   00A8H.4 A   
ET0 . . . . . . . . . . . . . . .  B ADDR   00A8H.1 A   
ET1 . . . . . . . . . . . . . . .  B ADDR   00A8H.3 A   
ET2 . . . . . . . . . . . . . . .  B ADDR   00A8H.5 A   
EX0 . . . . . . . . . . . . . . .  B ADDR   00A8H.0 A   
EX1 . . . . . . . . . . . . . . .  B ADDR   00A8H.2 A   
EXEN2 . . . . . . . . . . . . . .  B ADDR   00C8H.3 A   
EXF2. . . . . . . . . . . . . . .  B ADDR   00C8H.6 A   
F0. . . . . . . . . . . . . . . .  B ADDR   00D0H.5 A   
IE. . . . . . . . . . . . . . . .  D ADDR   00A8H   A   
IE0 . . . . . . . . . . . . . . .  B ADDR   0088H.1 A   
IE1 . . . . . . . . . . . . . . .  B ADDR   0088H.3 A   
INT0. . . . . . . . . . . . . . .  B ADDR   00B0H.2 A   
INT1. . . . . . . . . . . . . . .  B ADDR   00B0H.3 A   
IP. . . . . . . . . . . . . . . .  D ADDR   00B8H   A   
IT0 . . . . . . . . . . . . . . .  B ADDR   0088H.0 A   
IT1 . . . . . . . . . . . . . . .  B ADDR   0088H.2 A   
L?0178. . . . . . . . . . . . . .  C ADDR   0000H   R   SEG=?PR?UCOS_II
L?0179. . . . . . . . . . . . . .  C ADDR   000DH   R   SEG=?PR?UCOS_II
L?0180. . . . . . . . . . . . . .  C ADDR   0010H   R   SEG=?PR?UCOS_II
L?0181. . . . . . . . . . . . . .  C ADDR   0016H   R   SEG=?PR?UCOS_II
L?0182. . . . . . . . . . . . . .  C ADDR   0019H   R   SEG=?PR?UCOS_II
L?0183. . . . . . . . . . . . . .  C ADDR   0020H   R   SEG=?PR?UCOS_II
L?0184. . . . . . . . . . . . . .  C ADDR   002CH   R   SEG=?PR?UCOS_II
L?0185. . . . . . . . . . . . . .  C ADDR   0032H   R   SEG=?PR?UCOS_II
L?0186. . . . . . . . . . . . . .  C ADDR   003BH   R   SEG=?PR?UCOS_II
L?0187. . . . . . . . . . . . . .  C ADDR   003BH   R   SEG=?PR?UCOS_II
L?0188. . . . . . . . . . . . . .  C ADDR   003EH   R   SEG=?PR?UCOS_II
L?0189. . . . . . . . . . . . . .  C ADDR   0044H   R   SEG=?PR?UCOS_II
L?0190. . . . . . . . . . . . . .  C ADDR   0047H   R   SEG=?PR?UCOS_II
L?0191. . . . . . . . . . . . . .  C ADDR   0054H   R   SEG=?PR?UCOS_II
L?0192. . . . . . . . . . . . . .  C ADDR   005AH   R   SEG=?PR?UCOS_II
L?0193. . . . . . . . . . . . . .  C ADDR   0064H   R   SEG=?PR?UCOS_II
L?0194. . . . . . . . . . . . . .  C ADDR   0067H   R   SEG=?PR?UCOS_II
L?0195. . . . . . . . . . . . . .  C ADDR   006AH   R   SEG=?PR?UCOS_II
L?0196. . . . . . . . . . . . . .  C ADDR   006BH   R   SEG=?PR?UCOS_II
L?0197. . . . . . . . . . . . . .  C ADDR   0079H   R   SEG=?PR?UCOS_II
L?0198. . . . . . . . . . . . . .  C ADDR   0079H   R   SEG=?PR?UCOS_II
L?0199. . . . . . . . . . . . . .  C ADDR   007CH   R   SEG=?PR?UCOS_II
L?0200. . . . . . . . . . . . . .  C ADDR   007DH   R   SEG=?PR?UCOS_II
L?0201. . . . . . . . . . . . . .  C ADDR   0083H   R   SEG=?PR?UCOS_II
L?0202. . . . . . . . . . . . . .  C ADDR   0087H   R   SEG=?PR?UCOS_II
L?0203. . . . . . . . . . . . . .  C ADDR   008AH   R   SEG=?PR?UCOS_II
L?0204. . . . . . . . . . . . . .  C ADDR   0091H   R   SEG=?PR?UCOS_II
L?0205. . . . . . . . . . . . . .  C ADDR   0091H   R   SEG=?PR?UCOS_II
L?0206. . . . . . . . . . . . . .  C ADDR   0094H   R   SEG=?PR?UCOS_II
L?0207. . . . . . . . . . . . . .  C ADDR   0095H   R   SEG=?PR?UCOS_II
L?0208. . . . . . . . . . . . . .  C ADDR   00A0H   R   SEG=?PR?UCOS_II
L?0209. . . . . . . . . . . . . .  C ADDR   00B2H   R   SEG=?PR?UCOS_II
L?0210. . . . . . . . . . . . . .  C ADDR   00C2H   R   SEG=?PR?UCOS_II
L?0211. . . . . . . . . . . . . .  C ADDR   00CDH   R   SEG=?PR?UCOS_II
L?0212. . . . . . . . . . . . . .  C ADDR   00CEH   R   SEG=?PR?UCOS_II
L?0213. . . . . . . . . . . . . .  C ADDR   00D4H   R   SEG=?PR?UCOS_II
L?0214. . . . . . . . . . . . . .  C ADDR   00D4H   R   SEG=?PR?UCOS_II
L?0215. . . . . . . . . . . . . .  C ADDR   00DAH   R   SEG=?PR?UCOS_II
L?0216. . . . . . . . . . . . . .  C ADDR   00DCH   R   SEG=?PR?UCOS_II
L?0217. . . . . . . . . . . . . .  C ADDR   00E2H   R   SEG=?PR?UCOS_II
L?0218. . . . . . . . . . . . . .  C ADDR   00E8H   R   SEG=?PR?UCOS_II
L?0219. . . . . . . . . . . . . .  C ADDR   00EFH   R   SEG=?PR?UCOS_II
L?0220. . . . . . . . . . . . . .  C ADDR   00F0H   R   SEG=?PR?UCOS_II
A51 MACRO ASSEMBLER  UCOS_II                                                              07/03/2002 08:51:26 PAGE    75

L?0221. . . . . . . . . . . . . .  C ADDR   00F6H   R   SEG=?PR?UCOS_II
L?0222. . . . . . . . . . . . . .  C ADDR   00F6H   R   SEG=?PR?UCOS_II
L?0223. . . . . . . . . . . . . .  C ADDR   00F9H   R   SEG=?PR?UCOS_II
L?0224. . . . . . . . . . . . . .  C ADDR   0101H   R   SEG=?PR?UCOS_II
L?0225. . . . . . . . . . . . . .  C ADDR   0101H   R   SEG=?PR?UCOS_II
L?0226. . . . . . . . . . . . . .  C ADDR   0107H   R   SEG=?PR?UCOS_II
L?0227. . . . . . . . . . . . . .  C ADDR   0107H   R   SEG=?PR?UCOS_II
L?0228. . . . . . . . . . . . . .  C ADDR   010AH   R   SEG=?PR?UCOS_II
L?0229. . . . . . . . . . . . . .  C ADDR   0110H   R   SEG=?PR?UCOS_II
L?0230. . . . . . . . . . . . . .  C ADDR   0111H   R   SEG=?PR?UCOS_II
L?0231. . . . . . . . . . . . . .  C ADDR   0117H   R   SEG=?PR?UCOS_II
L?0232. . . . . . . . . . . . . .  C ADDR   011AH   R   SEG=?PR?UCOS_II
L?0233. . . . . . . . . . . . . .  C ADDR   0125H   R   SEG=?PR?UCOS_II
L?0234. . . . . . . . . . . . . .  C ADDR   0125H   R   SEG=?PR?UCOS_II
L?0235. . . . . . . . . . . . . .  C ADDR   0128H   R   SEG=?PR?UCOS_II
L?0236. . . . . . . . . . . . . .  C ADDR   012EH   R   SEG=?PR?UCOS_II
L?0237. . . . . . . . . . . . . .  C ADDR   012EH   R   SEG=?PR?UCOS_II
L?0238. . . . . . . . . . . . . .  C ADDR   0131H   R   SEG=?PR?UCOS_II
L?0239. . . . . . . . . . . . . .  C ADDR   0137H   R   SEG=?PR?UCOS_II
L?0240. . . . . . . . . . . . . .  C ADDR   0142H   R   SEG=?PR?UCOS_II
L?0241. . . . . . . . . . . . . .  C ADDR   014AH   R   SEG=?PR?UCOS_II
L?0242. . . . . . . . . . . . . .  C ADDR   014AH   R   SEG=?PR?UCOS_II
L?0243. . . . . . . . . . . . . .  C ADDR   014DH   R   SEG=?PR?UCOS_II
L?0244. . . . . . . . . . . . . .  C ADDR   0154H   R   SEG=?PR?UCOS_II
L?0245. . . . . . . . . . . . . .  C ADDR   0154H   R   SEG=?PR?UCOS_II
L?0246. . . . . . . . . . . . . .  C ADDR   0155H   R   SEG=?PR?UCOS_II
L?0247. . . . . . . . . . . . . .  C ADDR   015BH   R   SEG=?PR?UCOS_II
L?0248. . . . . . . . . . . . . .  C ADDR   016FH   R   SEG=?PR?UCOS_II
L?0249. . . . . . . . . . . . . .  C ADDR   0178H   R   SEG=?PR?UCOS_II
L?0250. . . . . . . . . . . . . .  C ADDR   017EH   R   SEG=?PR?UCOS_II
L?0251. . . . . . . . . . . . . .  C ADDR   0181H   R   SEG=?PR?UCOS_II
L?0252. . . . . . . . . . . . . .  C ADDR   0188H   R   SEG=?PR?UCOS_II
L?0253. . . . . . . . . . . . . .  C ADDR   0188H   R   SEG=?PR?UCOS_II
L?0254. . . . . . . . . . . . . .  C ADDR   018EH   R   SEG=?PR?UCOS_II
L?0255. . . . . . . . . . . . . .  C ADDR   018EH   R   SEG=?PR?UCOS_II
L?0256. . . . . . . . . . . . . .  C ADDR   0194H   R   SEG=?PR?UCOS_II
L?0257. . . . . . . . . . . . . .  C ADDR   0194H   R   SEG=?PR?UCOS_II
L?0258. . . . . . . . . . . . . .  C ADDR   019AH   R   SEG=?PR?UCOS_II
L?0259. . . . . . . . . . . . . .  C ADDR   019AH   R   SEG=?PR?UCOS_II
L?0260. . . . . . . . . . . . . .  C ADDR   01A2H   R   SEG=?PR?UCOS_II
L?0261. . . . . . . . . . . . . .  C ADDR   01A3H   R   SEG=?PR?UCOS_II
L?0262. . . . . . . . . . . . . .  C ADDR   01ACH   R   SEG=?PR?UCOS_II
L?0263. . . . . . . . . . . . . .  C ADDR   01AFH   R   SEG=?PR?UCOS_II
L?0264. . . . . . . . . . . . . .  C ADDR   01B5H   R   SEG=?PR?UCOS_II
L?0265. . . . . . . . . . . . . .  C ADDR   01B5H   R   SEG=?PR?UCOS_II
L?0266. . . . . . . . . . . . . .  C ADDR   01B6H   R   SEG=?PR?UCOS_II
L?0267. . . . . . . . . . . . . .  C ADDR   01BCH   R   SEG=?PR?UCOS_II
L?0268. . . . . . . . . . . . . .  C ADDR   01C0H   R   SEG=?PR?UCOS_II
L?0269. . . . . . . . . . . . . .  C ADDR   01C7H   R   SEG=?PR?UCOS_II
L?0270. . . . . . . . . . . . . .  C ADDR   01D3H   R   SEG=?PR?UCOS_II
L?0271. . . . . . . . . . . . . .  C ADDR   01D3H   R   SEG=?PR?UCOS_II
L?0272. . . . . . . . . . . . . .  C ADDR   01D9H   R   SEG=?PR?UCOS_II
L?0273. . . . . . . . . . . . . .  C ADDR   01D9H   R   SEG=?PR?UCOS_II
L?0274. . . . . . . . . . . . . .  C ADDR   01E0H   R   SEG=?PR?UCOS_II
L?0275. . . . . . . . . . . . . .  C ADDR   01E3H   R   SEG=?PR?UCOS_II
L?0276. . . . . . . . . . . . . .  C ADDR   01E9H   R   SEG=?PR?UCOS_II
L?0277. . . . . . . . . . . . . .  C ADDR   01F4H   R   SEG=?PR?UCOS_II
L?0278. . . . . . . . . . . . . .  C ADDR   01F4H   R   SEG=?PR?UCOS_II
L?0279. . . . . . . . . . . . . .  C ADDR   01FCH   R   SEG=?PR?UCOS_II
L?0280. . . . . . . . . . . . . .  C ADDR   0207H   R   SEG=?PR?UCOS_II
L?0281. . . . . . . . . . . . . .  C ADDR   0212H   R   SEG=?PR?UCOS_II
L?0282. . . . . . . . . . . . . .  C ADDR   0212H   R   SEG=?PR?UCOS_II
L?0283. . . . . . . . . . . . . .  C ADDR   0218H   R   SEG=?PR?UCOS_II
L?0284. . . . . . . . . . . . . .  C ADDR   0222H   R   SEG=?PR?UCOS_II
L?0285. . . . . . . . . . . . . .  C ADDR   0222H   R   SEG=?PR?UCOS_II
L?0286. . . . . . . . . . . . . .  C ADDR   0229H   R   SEG=?PR?UCOS_II
A51 MACRO ASSEMBLER  UCOS_II                                                              07/03/2002 08:51:26 PAGE    76

L?0287. . . . . . . . . . . . . .  C ADDR   0229H   R   SEG=?PR?UCOS_II
L?0288. . . . . . . . . . . . . .  C ADDR   0230H   R   SEG=?PR?UCOS_II
L?0289. . . . . . . . . . . . . .  C ADDR   0230H   R   SEG=?PR?UCOS_II
L?0290. . . . . . . . . . . . . .  C ADDR   0237H   R   SEG=?PR?UCOS_II
L?0291. . . . . . . . . . . . . .  C ADDR   0237H   R   SEG=?PR?UCOS_II
L?0292. . . . . . . . . . . . . .  C ADDR   023EH   R   SEG=?PR?UCOS_II
L?0293. . . . . . . . . . . . . .  C ADDR   023EH   R   SEG=?PR?UCOS_II
OSCPUUSAGE. . . . . . . . . . . .  X ADDR   0001H   R   SEG=?XD?UCOS_II
OSCTXSWCTR. . . . . . . . . . . .  X ADDR   01DCH   R   SEG=?XD?UCOS_II
OSDUMMY . . . . . . . . . . . . .  C ADDR   0000H   R   SEG=?PR?OSDUMMY?UCOS_II
OSEVENTFREELIST . . . . . . . . .  X ADDR   01F8H   R   SEG=?XD?UCOS_II
OSEVENTTBL. . . . . . . . . . . .  X ADDR   01E0H   R   SEG=?XD?UCOS_II
OSIDLECTR . . . . . . . . . . . .  X ADDR   01FBH   R   SEG=?XD?UCOS_II
OSIDLECTRMAX. . . . . . . . . . .  X ADDR   024BH   R   SEG=?XD?UCOS_II
OSIDLECTRRUN. . . . . . . . . . .  X ADDR   0002H   R   SEG=?XD?UCOS_II
OSINTEXITY. . . . . . . . . . . .  X ADDR   01DBH   R   SEG=?XD?UCOS_II
OSINTNESTING. . . . . . . . . . .  X ADDR   01C4H   R   SEG=?XD?UCOS_II
OSLOCKNESTING . . . . . . . . . .  X ADDR   0047H   R   SEG=?XD?UCOS_II
OSMAPTBL. . . . . . . . . . . . .  X ADDR   0200H   R   SEG=?XD?UCOS_II
OSPRIOCUR . . . . . . . . . . . .  X ADDR   0208H   R   SEG=?XD?UCOS_II
OSPRIOHIGHRDY . . . . . . . . . .  X ADDR   024AH   R   SEG=?XD?UCOS_II
OSRDYGRP. . . . . . . . . . . . .  X ADDR   0000H   R   SEG=?XD?UCOS_II
OSRDYTBL. . . . . . . . . . . . .  X ADDR   024FH   R   SEG=?XD?UCOS_II
OSRUNNING . . . . . . . . . . . .  X ADDR   0006H   R   SEG=?XD?UCOS_II
OSSTATRDY . . . . . . . . . . . .  X ADDR   0249H   R   SEG=?XD?UCOS_II
OSTASKCTR . . . . . . . . . . . .  X ADDR   01FFH   R   SEG=?XD?UCOS_II
OSTASKIDLESTK . . . . . . . . . .  X ADDR   0209H   R   SEG=?XD?UCOS_II
OSTASKSTATSTK . . . . . . . . . .  X ADDR   0007H   R   SEG=?XD?UCOS_II
OSTCBCUR. . . . . . . . . . . . .  X ADDR   00C1H   R   SEG=?XD?UCOS_II
OSTCBFREELIST . . . . . . . . . .  X ADDR   00BEH   R   SEG=?XD?UCOS_II
OSTCBHIGHRDY. . . . . . . . . . .  X ADDR   01C5H   R   SEG=?XD?UCOS_II
OSTCBLIST . . . . . . . . . . . .  X ADDR   0048H   R   SEG=?XD?UCOS_II
OSTCBPRIOTBL. . . . . . . . . . .  X ADDR   01CCH   R   SEG=?XD?UCOS_II
OSTCBTBL. . . . . . . . . . . . .  X ADDR   004BH   R   SEG=?XD?UCOS_II
OSTIME. . . . . . . . . . . . . .  X ADDR   01C8H   R   SEG=?XD?UCOS_II
OSUNMAPTBL. . . . . . . . . . . .  X ADDR   00C4H   R   SEG=?XD?UCOS_II
OV. . . . . . . . . . . . . . . .  B ADDR   00D0H.2 A   
P . . . . . . . . . . . . . . . .  B ADDR   00D0H.0 A   
P0. . . . . . . . . . . . . . . .  D ADDR   0080H   A   
P1. . . . . . . . . . . . . . . .  D ADDR   0090H   A   
P2. . . . . . . . . . . . . . . .  D ADDR   00A0H   A   
P3. . . . . . . . . . . . . . . .  D ADDR   00B0H   A   
PCON. . . . . . . . . . . . . . .  D ADDR   0087H   A   
PS. . . . . . . . . . . . . . . .  B ADDR   00B8H.4 A   
PSW . . . . . . . . . . . . . . .  D ADDR   00D0H   A   
PT0 . . . . . . . . . . . . . . .  B ADDR   00B8H.1 A   
PT1 . . . . . . . . . . . . . . .  B ADDR   00B8H.3 A   
PT2 . . . . . . . . . . . . . . .  B ADDR   00B8H.5 A   
PX0 . . . . . . . . . . . . . . .  B ADDR   00B8H.0 A   
PX1 . . . . . . . . . . . . . . .  B ADDR   00B8H.2 A   
RB8 . . . . . . . . . . . . . . .  B ADDR   0098H.2 A   
RCAP2H. . . . . . . . . . . . . .  D ADDR   00CBH   A   
RCAP2L. . . . . . . . . . . . . .  D ADDR   00CAH   A   
RCLK. . . . . . . . . . . . . . .  B ADDR   00C8H.5 A   
RD. . . . . . . . . . . . . . . .  B ADDR   00B0H.7 A   
REN . . . . . . . . . . . . . . .  B ADDR   0098H.4 A   
RI. . . . . . . . . . . . . . . .  B ADDR   0098H.0 A   
RS0 . . . . . . . . . . . . . . .  B ADDR   00D0H.3 A   
RS1 . . . . . . . . . . . . . . .  B ADDR   00D0H.4 A   
RXD . . . . . . . . . . . . . . .  B ADDR   00B0H.0 A   
SBUF. . . . . . . . . . . . . . .  D ADDR   0099H   A   
SCON. . . . . . . . . . . . . . .  D ADDR   0098H   A   
SM0 . . . . . . . . . . . . . . .  B ADDR   0098H.7 A   
SM1 . . . . . . . . . . . . . . .  B ADDR   0098H.6 A   
SM2 . . . . . . . . . . . . . . .  B ADDR   0098H.5 A   
SP. . . . . . . . . . . . . . . .  D ADDR   0081H   A   
A51 MACRO ASSEMBLER  UCOS_II                                                              07/03/2002 08:51:26 PAGE    77

T0. . . . . . . . . . . . . . . .  B ADDR   00B0H.4 A   
T1. . . . . . . . . . . . . . . .  B ADDR   00B0H.5 A   
T2. . . . . . . . . . . . . . . .  B ADDR   0090H.0 A   
T2CON . . . . . . . . . . . . . .  D ADDR   00C8H   A   
T2EX. . . . . . . . . . . . . . .  B ADDR   0090H.1 A   
TB8 . . . . . . . . . . . . . . .  B ADDR   0098H.3 A   
TCLK. . . . . . . . . . . . . . .  B ADDR   00C8H.4 A   
TCON. . . . . . . . . . . . . . .  D ADDR   0088H   A   
TF0 . . . . . . . . . . . . . . .  B ADDR   0088H.5 A   
TF1 . . . . . . . . . . . . . . .  B ADDR   0088H.7 A   
TF2 . . . . . . . . . . . . . . .  B ADDR   00C8H.7 A   
TH0 . . . . . . . . . . . . . . .  D ADDR   008CH   A   
TH1 . . . . . . . . . . . . . . .  D ADDR   008DH   A   
TH2 . . . . . . . . . . . . . . .  D ADDR   00CDH   A   
TI. . . . . . . . . . . . . . . .  B ADDR   0098H.1 A   
TL0 . . . . . . . . . . . . . . .  D ADDR   008AH   A   
TL1 . . . . . . . . . . . . . . .  D ADDR   008BH   A   
TL2 . . . . . . . . . . . . . . .  D ADDR   00CCH   A   
TMOD. . . . . . . . . . . . . . .  D ADDR   0089H   A   
TR0 . . . . . . . . . . . . . . .  B ADDR   0088H.4 A   
TR1 . . . . . . . . . . . . . . .  B ADDR   0088H.6 A   
TR2 . . . . . . . . . . . . . . .  B ADDR   00C8H.2 A   
TXD . . . . . . . . . . . . . . .  B ADDR   00B0H.1 A   
UCOS_II . . . . . . . . . . . . .  N NUMB   -----       
WR. . . . . . . . . . . . . . . .  B ADDR   00B0H.6 A   
_?OSCTXSW . . . . . . . . . . . .  C ADDR   -----       EXT
_?OSEVENTTASKRDY. . . . . . . . .  C ADDR   0000H   R   SEG=?PR?_?OSEVENTTASKRDY?UCOS_II
_?OSEVENTTASKWAIT . . . . . . . .  C ADDR   0000H   R   SEG=?PR?_?OSEVENTTASKWAIT?UCOS_II
_?OSEVENTTO . . . . . . . . . . .  C ADDR   0000H   R   SEG=?PR?_?OSEVENTTO?UCOS_II
_?OSEVENTWAITLISTINIT . . . . . .  C ADDR   0000H   R   SEG=?PR?_?OSEVENTWAITLISTINIT?UCOS_II
_?OSINIT. . . . . . . . . . . . .  C ADDR   0000H   R   SEG=?PR?_?OSINIT?UCOS_II
_?OSINTCTXSW. . . . . . . . . . .  C ADDR   -----       EXT
_?OSINTENTER. . . . . . . . . . .  C ADDR   0000H   R   SEG=?PR?_?OSINTENTER?UCOS_II
_?OSINTEXIT . . . . . . . . . . .  C ADDR   0000H   R   SEG=?PR?_?OSINTEXIT?UCOS_II
_?OSMBOXACCEPT. . . . . . . . . .  C ADDR   0000H   R   SEG=?PR?_?OSMBOXACCEPT?UCOS_II
_?OSMBOXCREATE. . . . . . . . . .  C ADDR   0000H   R   SEG=?PR?_?OSMBOXCREATE?UCOS_II
_?OSMBOXPEND. . . . . . . . . . .  C ADDR   0000H   R   SEG=?PR?_?OSMBOXPEND?UCOS_II
_?OSMBOXPOST. . . . . . . . . . .  C ADDR   0000H   R   SEG=?PR?_?OSMBOXPOST?UCOS_II
_?OSMBOXQUERY . . . . . . . . . .  C ADDR   0000H   R   SEG=?PR?_?OSMBOXQUERY?UCOS_II
_?OSSCHED . . . . . . . . . . . .  C ADDR   0000H   R   SEG=?PR?_?OSSCHED?UCOS_II
_?OSSCHEDLOCK . . . . . . . . . .  C ADDR   0000H   R   SEG=?PR?_?OSSCHEDLOCK?UCOS_II
_?OSSCHEDUNLOCK . . . . . . . . .  C ADDR   0000H   R   SEG=?PR?_?OSSCHEDUNLOCK?UCOS_II
_?OSSEMACCEPT . . . . . . . . . .  C ADDR   0000H   R   SEG=?PR?_?OSSEMACCEPT?UCOS_II
_?OSSEMCREATE . . . . . . . . . .  C ADDR   0000H   R   SEG=?PR?_?OSSEMCREATE?UCOS_II
_?OSSEMPEND . . . . . . . . . . .  C ADDR   0000H   R   SEG=?PR?_?OSSEMPEND?UCOS_II
_?OSSEMPOST . . . . . . . . . . .  C ADDR   0000H   R   SEG=?PR?_?OSSEMPOST?UCOS_II
_?OSSEMQUERY. . . . . . . . . . .  C ADDR   0000H   R   SEG=?PR?_?OSSEMQUERY?UCOS_II
_?OSSTART . . . . . . . . . . . .  C ADDR   0000H   R   SEG=?PR?_?OSSTART?UCOS_II
_?OSSTARTHIGHRDY. . . . . . . . .  C ADDR   -----       EXT
_?OSSTATINIT. . . . . . . . . . .  C ADDR   0000H   R   SEG=?PR?_?OSSTATINIT?UCOS_II
_?OSTASKCREATE. . . . . . . . . .  C ADDR   0000H   R   SEG=?PR?_?OSTASKCREATE?UCOS_II
_?OSTASKCREATEHOOK. . . . . . . .  C ADDR   -----       EXT
_?OSTASKIDLE. . . . . . . . . . .  C ADDR   0000H   R   SEG=?PR?_?OSTASKIDLE?UCOS_II
_?OSTASKQUERY . . . . . . . . . .  C ADDR   0000H   R   SEG=?PR?_?OSTASKQUERY?UCOS_II
_?OSTASKSTAT. . . . . . . . . . .  C ADDR   0000H   R   SEG=?PR?_?OSTASKSTAT?UCOS_II
_?OSTASKSTATHOOK. . . . . . . . .  C ADDR   -----       EXT
_?OSTASKSTKINIT . . . . . . . . .  C ADDR   -----       EXT
_?OSTCBINIT . . . . . . . . . . .  C ADDR   0000H   R   SEG=?PR?_?OSTCBINIT?UCOS_II
_?OSTIMEDLY . . . . . . . . . . .  C ADDR   0000H   R   SEG=?PR?_?OSTIMEDLY?UCOS_II
_?OSTIMEDLYHMSM . . . . . . . . .  C ADDR   0000H   R   SEG=?PR?_?OSTIMEDLYHMSM?UCOS_II
_?OSTIMEDLYRESUME . . . . . . . .  C ADDR   0000H   R   SEG=?PR?_?OSTIMEDLYRESUME?UCOS_II
_?OSTIMEGET . . . . . . . . . . .  C ADDR   0000H   R   SEG=?PR?_?OSTIMEGET?UCOS_II
_?OSTIMESET . . . . . . . . . . .  C ADDR   0000H   R   SEG=?PR?_?OSTIMESET?UCOS_II
_?OSTIMETICK. . . . . . . . . . .  C ADDR   0000H   R   SEG=?PR?_?OSTIMETICK?UCOS_II
_?OSTIMETICKHOOK. . . . . . . . .  C ADDR   -----       EXT
_?OSVERSION . . . . . . . . . . .  C ADDR   0000H   R   SEG=?PR?_?OSVERSION?UCOS_II
A51 MACRO ASSEMBLER  UCOS_II                                                              07/03/2002 08:51:26 PAGE    78



REGISTER BANK(S) USED: 0 


ASSEMBLY COMPLETE.  0 WARNING(S), 0 ERROR(S)
